(dp0
S'class_sl'
p1
(dp2
S'C'
p3
(I100
I171
tp4
sS'AD'
p5
(I0
I100
tp6
ssS'class_hierarchy'
p7
(dp8
g3
(lp9
S'C_subcl'
p10
asg5
(lp11
S'AD_subcl'
p12
assS'feats'
p13
(dp14
S'd__Bacteria.p__Desulfobacterota.c__Desulfovibrionia'
p15
(lp16
F455.7469692826538
aF428.7858214821697
aF0.0
aF490.2201088288639
aF552.2217722637408
aF0.0
aF14309.044249164006
aF692.4079504724676
aF0.0
aF3805.4968287526412
aF0.0
aF1065.0257381219997
aF0.0
aF0.0
aF447.10721631047085
aF1182.8720132481697
aF0.0
aF9170.506912442397
aF0.0
aF0.0
aF0.0
aF2777.7777777777815
aF0.0
aF0.0
aF1546.6983938132103
aF0.0
aF304.2056430146778
aF769.57609183608
aF0.0
aF577.01554736336
aF56902.13331119776
aF203.08692120227502
aF0.0
aF7870.009159062379
aF3262.7559875043376
aF0.0
aF0.0
aF0.0
aF0.0
aF630.0891818534323
aF1478.9617688382796
aF553.0633564800586
aF4229.967232648204
aF0.0
aF0.0
aF684.6970215679561
aF0.0
aF0.0
aF0.0
aF419.04123365739196
aF439.05164843937126
aF0.0
aF4140.480591497233
aF0.0
aF277.83951989330996
aF0.0
aF1594.2425070602203
aF1411.3927623779093
aF16221.873364730503
aF0.0
aF481.94706614723515
aF0.0
aF172.42865764290008
aF0.0
aF9803.921568627446
aF0.0
aF2368.1717713924913
aF0.0
aF131.792821684312
aF355.8507799062928
aF5318.2829543604485
aF10400.673567431002
aF25483.66964842941
aF0.0
aF0.0
aF190.29495718363498
aF0.0
aF0.0
aF7300.97814386671
aF1268.6598722882406
aF12613.484149427002
aF5658.536585365848
aF3823.3392370189217
aF4016.518640040731
aF3500.7939945142193
aF1288.3076322467298
aF4985.754985754987
aF7760.581597609376
aF438.6542088871338
aF13346.219338211591
aF2543.006731488411
aF100.05669879598402
aF117.68859597505005
aF0.0
aF10926.503197609005
aF252.0902483088951
aF0.0
aF0.0
aF0.0
aF689.2637041842356
aF0.0
aF0.0
aF560.515674420467
aF1502.5543423820488
aF322.9378114043182
aF2360.1604909133807
aF0.0
aF925.5650818394386
aF379.9598328176738
aF4402.891775833018
aF1125.75636755945
aF5316.0070880094545
aF2363.9018285475904
aF155.2072016141551
aF0.0
aF9013.78579003181
aF3508.4098648230292
aF0.0
aF2394.373222926122
aF0.0
aF121.98097096852904
aF986.398089502648
aF1517.5204635335208
aF1090.0802695471198
aF412.54125412541316
aF0.0
aF442.5513082923049
aF0.0
aF248.69435463814995
aF260.6746259319121
aF260.79869600651995
aF1185.9582542694498
aF0.0
aF146.93637654895392
aF0.0
aF9642.207398423288
aF6185.867113019434
aF1148.8692707703503
aF355.13465522343876
aF0.0
aF8214.000145380533
aF493.8620008466207
aF0.0
aF1823.1788620098505
aF0.0
aF1311.40926056693
aF303.44409042633885
aF0.0
aF0.0
aF2276.4388578215517
aF0.0
aF855.3862603581925
aF0.0
aF0.0
aF3288.8140215778335
aF687.8439219609793
aF0.0
aF1172.57201121591
aF0.0
aF0.0
aF0.0
aF0.0
aF0.0
aF11162.790697674403
aF10305.9130759187
aF0.0
aF1743.264659271
aF1096.2336543731897
aF4338.289056787721
aF0.0
aF0.0
asS'd__Archaea'
p17
(lp18
F0.0
aF0.0
aF0.0
aF0.0
aF0.0
aF0.0
aF0.0
aF0.0
aF0.0
aF0.0
aF0.0
aF0.0
aF0.0
aF0.0
aF0.0
aF0.0
aF0.0
aF368.6635944700459
aF114.142221207625
aF56650.030645302526
aF0.0
aF547.1380471380472
aF0.0
aF0.0
aF6424.747174301012
aF0.0
aF0.0
aF128.26268197267999
aF0.0
aF0.0
aF0.0
aF0.0
aF0.0
aF2747.718715017469
aF0.0
aF0.0
aF0.0
aF0.0
aF0.0
aF0.0
aF0.0
aF0.0
aF0.0
aF0.0
aF0.0
aF0.0
aF4286.70491079871
aF0.0
aF0.0
aF0.0
aF9339.825975892076
aF186.17813523979694
aF0.0
aF0.0
aF0.0
aF0.0
aF0.0
aF0.0
aF0.0
aF0.0
aF0.0
aF0.0
aF0.0
aF1658.5666898094591
aF1219.6266066235094
aF0.0
aF81654.56267761295
aF0.0
aF0.0
aF0.0
aF0.0
aF0.0
aF0.0
aF0.0
aF0.0
aF0.0
aF0.0
aF0.0
aF0.0
aF5159.216813972173
aF0.0
aF0.0
aF295549.7455792641
aF0.0
aF7326.403926663778
aF13585.789576420097
aF0.0
aF0.0
aF0.0
aF0.0
aF0.0
aF0.0
aF0.0
aF0.0
aF0.0
aF0.0
aF0.0
aF0.0
aF0.0
aF0.0
aF0.0
aF136.0359134811591
aF0.0
aF0.0
aF0.0
aF0.0
aF0.0
aF0.0
aF0.0
aF18916.12762950479
aF0.0
aF0.0
aF0.0
aF0.0
aF0.0
aF574.407917992223
aF0.0
aF0.0
aF0.0
aF0.0
aF0.0
aF0.0
aF0.0
aF0.0
aF0.0
aF0.0
aF0.0
aF0.0
aF0.0
aF0.0
aF0.0
aF0.0
aF0.0
aF244.89396091492384
aF0.0
aF1273.4990903577898
aF1892.1475875118313
aF0.0
aF0.0
aF0.0
aF0.0
aF7266.826583885984
aF0.0
aF0.0
aF0.0
aF0.0
aF0.0
aF0.0
aF0.0
aF0.0
aF0.0
aF0.0
aF0.0
aF0.0
aF0.0
aF187.5937968984488
aF0.0
aF3211.82768289574
aF0.0
aF0.0
aF0.0
aF0.0
aF0.0
aF744.1860465116282
aF0.0
aF0.0
aF0.0
aF9396.288466055908
aF0.0
aF0.0
aF3720.7414422946786
asS'd__Bacteria.p__Synergistota.c__Synergistia'
p19
(lp20
F2552.1830279828587
aF0.0
aF0.0
aF0.0
aF0.0
aF0.0
aF13453.612256007505
aF0.0
aF0.0
aF0.0
aF0.0
aF0.0
aF0.0
aF0.0
aF0.0
aF0.0
aF0.0
aF783.4101382488478
aF0.0
aF0.0
aF0.0
aF1809.7643097643108
aF0.0
aF0.0
aF753.5197303192541
aF0.0
aF0.0
aF0.0
aF0.0
aF0.0
aF0.0
aF0.0
aF0.0
aF135.68981308728198
aF624.7830614370005
aF0.0
aF0.0
aF0.0
aF0.0
aF0.0
aF0.0
aF0.0
aF0.0
aF0.0
aF0.0
aF0.0
aF189.119334299943
aF0.0
aF0.0
aF0.0
aF0.0
aF0.0
aF0.0
aF0.0
aF0.0
aF0.0
aF409.94807324405605
aF0.0
aF470.9576138147571
aF0.0
aF0.0
aF0.0
aF258.6429864643501
aF0.0
aF2204.709635050189
aF0.0
aF252.60498894853214
aF0.0
aF0.0
aF0.0
aF0.0
aF0.0
aF5980.861244019142
aF0.0
aF0.0
aF0.0
aF0.0
aF0.0
aF1825.2445359666801
aF0.0
aF0.0
aF0.0
aF0.0
aF989.9869887424344
aF3175.978056878879
aF273.2773765371849
aF0.0
aF0.0
aF0.0
aF0.0
aF0.0
aF2401.3607711036307
aF353.0657879251501
aF0.0
aF0.0
aF0.0
aF0.0
aF0.0
aF91.8892428326391
aF0.0
aF0.0
aF0.0
aF0.0
aF0.0
aF0.0
aF0.0
aF0.0
aF0.0
aF0.0
aF0.0
aF0.0
aF0.0
aF208.57957310714
aF0.0
aF0.0
aF0.0
aF154.78278815395697
aF0.0
aF0.0
aF0.0
aF0.0
aF0.0
aF0.0
aF0.0
aF0.0
aF0.0
aF0.0
aF0.0
aF0.0
aF0.0
aF0.0
aF0.0
aF0.0
aF0.0
aF0.0
aF485.1425106124919
aF2183.2472163598013
aF0.0
aF0.0
aF0.0
aF0.0
aF0.0
aF125.7268584001259
aF0.0
aF0.0
aF0.0
aF0.0
aF0.0
aF0.0
aF0.0
aF0.0
aF0.0
aF0.0
aF0.0
aF0.0
aF0.0
aF0.0
aF0.0
aF0.0
aF0.0
aF0.0
aF0.0
aF0.0
aF0.0
aF0.0
aF0.0
aF0.0
aF391.51201941899586
aF0.0
aF0.0
aF0.0
asS'd__Bacteria.p__Patescibacteria'
p21
(lp22
F729.1951508522467
aF285.8572143214458
aF0.0
aF0.0
aF404.9626329934099
aF440.981919741291
aF155.5330896648261
aF325.8390355164552
aF0.0
aF0.0
aF0.0
aF473.3447724986689
aF195.3888237592809
aF4094.2513368984014
aF0.0
aF0.0
aF0.0
aF0.0
aF0.0
aF0.0
aF0.0
aF589.2255892255893
aF321.82428394096814
aF9399.47780678851
aF6662.700773349202
aF1445.0867052023095
aF0.0
aF3302.76406079651
aF230.78698361412407
aF2468.3442859432603
aF1992.1972275255284
aF1177.9041429731901
aF18423.867823606302
aF237.45717290274393
aF138.8406803193339
aF0.0
aF0.0
aF0.0
aF362.7130939426912
aF0.0
aF0.0
aF0.0
aF0.0
aF0.0
aF0.0
aF0.0
aF378.2386685998871
aF0.0
aF146.01204599379398
aF419.04123365739196
aF0.0
aF0.0
aF517.5600739371533
aF0.0
aF0.0
aF0.0
aF136.649357748019
aF0.0
aF994.2438513867082
aF0.0
aF2289.248564199371
aF0.0
aF0.0
aF0.0
aF328.3610094755609
aF2942.5079221367087
aF0.0
aF0.0
aF0.0
aF177.92538995314592
aF0.0
aF0.0
aF0.0
aF0.0
aF0.0
aF0.0
aF0.0
aF0.0
aF0.0
aF253.73197445764816
aF0.0
aF0.0
aF0.0
aF707.1335633874533
aF0.0
aF156.15850087839198
aF0.0
aF1739.440702912449
aF0.0
aF0.0
aF0.0
aF0.0
aF6355.1841826527025
aF0.0
aF224.9574187743031
aF0.0
aF0.0
aF1466.7057788207703
aF0.0
aF121.63477132662995
aF0.0
aF0.0
aF360.33150498458605
aF0.0
aF0.0
aF0.0
aF0.0
aF0.0
aF108.55995223362095
aF217.42675436212392
aF515.97166846475
aF639.8897420752124
aF0.0
aF0.0
aF368.4869924091682
aF132.555673382821
aF309.5655763079149
aF0.0
aF399.0622038210213
aF0.0
aF0.0
aF0.0
aF0.0
aF346.8437221286289
aF0.0
aF0.0
aF663.8269624384578
aF0.0
aF2238.2491917433495
aF0.0
aF0.0
aF0.0
aF0.0
aF0.0
aF0.0
aF0.0
aF0.0
aF0.0
aF0.0
aF1141.7697431018098
aF0.0
aF141.1034288133199
aF345.7488606003457
aF0.0
aF374.7969849664762
aF151.316453142338
aF1099.9848277954795
aF0.0
aF0.0
aF0.0
aF428.70922796613235
aF0.0
aF0.0
aF5402.659770964173
aF3088.2765812377233
aF9379.68984492245
aF563.1687629059511
aF0.0
aF0.0
aF933.665303218922
aF0.0
aF0.0
aF464.8460197559562
aF0.0
aF6481.99962693527
aF371.218214440389
aF0.0
aF0.0
aF7262.9783085547215
aF0.0
aF676.4984440535787
asS'd__Bacteria.p__Bacteroidota'
p23
(lp24
F24428.037553550286
aF56957.049953548165
aF12207.846410684497
aF92700.62257953819
aF9903.177115929757
aF69528.1493458768
aF15164.476242320608
aF22075.594656239817
aF39638.8210574138
aF343340.3805496831
aF633890.7778780097
aF27690.66919117209
aF525335.4174807868
aF250.66844919786107
aF146114.63829026197
aF360397.4449964508
aF16653.20564593672
aF79999.99999999999
aF0.0
aF559232.9918571052
aF27624.30939226522
aF349537.03703703714
aF325824.1000413772
aF155566.104913363
aF75788.22129684713
aF454.1701073492979
aF106167.76941212293
aF26678.637850317402
aF8044.574857406612
aF8334.669017470751
aF313314.5181372958
aF5767.6685621446
aF34510.0836007766
aF48576.953085247085
aF263589.03158625483
aF187579.84386089403
aF333.9455668726002
aF0.0
aF3627.1309394269124
aF28547.886777820913
aF2957.923537676549
aF0.0
aF31992.850759606834
aF65793.06579306582
aF6147.540983606562
aF0.0
aF5106.22202609847
aF0.0
aF13323.599196933697
aF2011.3979215554803
aF1197.4135866528309
aF0.0
aF130720.88724584109
aF40789.47368421053
aF10280.0622360525
aF0.0
aF61355.561628860305
aF48721.278157285575
aF4290.947148090011
aF488892.3818505712
aF123097.31314510602
aF36780.9327644549
aF48323.131304422815
aF11262.824963357196
aF0.0
aF4753.2820280669985
aF5557.309756867704
aF4201.680672268913
aF1976.8923252646798
aF10972.065713777394
aF28110.924187333792
aF122579.36704472301
aF266850.42646141007
aF0.0
aF3894.3894389438883
aF184110.37107516697
aF11182.488698548688
aF133.19126265317007
aF175036.27088501002
aF407197.5303421152
aF13208.810834945703
aF541756.0975609757
aF30389.924376598916
aF1301.1257566329105
aF21004.763967085295
aF3669.724770642199
aF8463.214345567285
aF154676.41942821493
aF438.6542088871338
aF35252.42763127618
aF101458.48915482404
aF14074.642297301803
aF115452.51265152404
aF850.7018290089321
aF2474.531606517341
aF246292.1725977901
aF0.0
aF273310.1454134011
aF140069.835824553
aF9284.787544599416
aF20246.707958153307
aF918.2424159978236
aF54570.2045882212
aF139787.6389862769
aF52777.26517807713
aF24923.29478404531
aF5333.7921541638
aF166845.28448947793
aF56451.175161482875
aF197640.91971517092
aF24438.2944791031
aF12010.23823587321
aF320795.383438782
aF8288.064566195875
aF286240.69570344215
aF95307.5291622481
aF31782.06583427919
aF1736.7141368530688
aF21549.35900633512
aF4276.335601999639
aF1890.7050500122004
aF196812.376700239
aF27499.31021797111
aF30373.600237835693
aF72371.52286657244
aF2253.174928308071
aF80931.57050395528
aF11949.849810630798
aF14486.446157672197
aF21375.319326416808
aF19201.303993479996
aF38614.80075901329
aF11504.2884289456
aF418866.63074888574
aF779.6257796257796
aF226622.19526986094
aF255658.24903573215
aF137985.24609989102
aF172358.68600177587
aF0.0
aF167769.13571272808
aF111542.26047692992
aF46173.18874744617
aF15156.875017007304
aF144046.97455544907
aF16947.4427519419
aF1820.664542558029
aF437831.4672952272
aF18050.40490426099
aF163705.64655812315
aF34225.28669929622
aF73242.44854317026
aF7252.774974772959
aF1708.5334318433709
aF35294.589499859634
aF1375.6878439219586
aF1314.06044678055
aF61330.6143257711
aF118737.34817813797
aF133.380757602703
aF204.05664612496412
aF185855.90075870883
aF5926.786751888443
aF123038.75968992205
aF9559.7836224585
aF680.566726474046
aF190253.56576862102
aF13389.711064129697
aF25006.093102607807
aF58018.068887634094
aF22595.04803138949
asS'd__Bacteria.p__Proteobacteria.c__Alphaproteobacteria'
p25
(lp26
F0.0
aF0.0
aF0.0
aF0.0
aF3239.701063947279
aF979.959821647313
aF0.0
aF2117.953730856962
aF0.0
aF0.0
aF0.0
aF0.0
aF325.64803959880186
aF793.7834224598932
aF0.0
aF236.5744026496329
aF1115.3417176262512
aF1797.2350230414697
aF1103.37480500704
aF569.1270466684183
aF0.0
aF0.0
aF0.0
aF0.0
aF3608.962918897481
aF123.86457473162696
aF0.0
aF865.77310331559
aF0.0
aF865.5233210450391
aF913.0903959491983
aF0.0
aF594.318316890527
aF101.76735981546197
aF0.0
aF0.0
aF0.0
aF393.59748097612186
aF0.0
aF242.34199302055112
aF0.0
aF0.0
aF0.0
aF0.0
aF0.0
aF136.939404313591
aF0.0
aF0.0
aF255.52108048913996
aF251.42474019443503
aF558.7930071046543
aF0.0
aF0.0
aF0.0
aF111.13580795732399
aF0.0
aF0.0
aF0.0
aF0.0
aF0.0
aF361.4602996104261
aF12211.269677798999
aF0.0
aF0.0
aF0.0
aF135.80805794477095
aF126.30249447426607
aF0.0
aF307.516583930062
aF0.0
aF0.0
aF0.0
aF0.0
aF0.0
aF132.01320132013194
aF95.14747859181728
aF118.96264572924086
aF0.0
aF0.0
aF0.0
aF74.41583568983481
aF0.0
aF449.80461611987323
aF0.0
aF144.36263894904
aF0.0
aF251.3826043237808
aF446.0104366442168
aF87.73084177742686
aF92.04289198766612
aF448.7658937920721
aF0.0
aF941.5087678004004
aF0.0
aF64.27354822122952
aF0.0
aF168.385603030941
aF0.0
aF214.408233276158
aF0.0
aF0.0
aF0.0
aF0.0
aF0.0
aF0.0
aF0.0
aF0.0
aF97.42790335151986
aF0.0
aF0.0
aF0.0
aF0.0
aF0.0
aF0.0
aF0.0
aF0.0
aF0.0
aF0.0
aF0.0
aF0.0
aF0.0
aF0.0
aF0.0
aF0.0
aF0.0
aF0.0
aF0.0
aF0.0
aF0.0
aF0.0
aF0.0
aF142.314990512334
aF0.0
aF0.0
aF0.0
aF0.0
aF0.0
aF0.0
aF0.0
aF0.0
aF0.0
aF0.0
aF377.1805752003767
aF0.0
aF0.0
aF0.0
aF0.0
aF0.0
aF0.0
aF0.0
aF928.8699939266197
aF0.0
aF0.0
aF0.0
aF1764.729474992982
aF312.65632816408163
aF0.0
aF0.0
aF0.0
aF0.0
aF0.0
aF166.14055490945285
aF0.0
aF0.0
aF0.0
aF0.0
aF0.0
aF234.90721165139794
aF194.97928345113306
aF0.0
aF270.59937762143085
asS'd__Bacteria.p__Firmicutes.c__Clostridia'
p27
(lp28
F641600.5833561207
aF205245.47988279886
aF585246.2437395658
aF686406.1963821759
aF946544.9324448698
aF612082.904600911
aF816159.8880161754
aF355816.2267839693
aF299335.56703958195
aF87987.69940418993
aF91596.69696759417
aF672504.5855274838
aF369610.5249446398
aF224306.48395721908
aF377492.6227309309
aF345398.6278684648
aF153571.01649936516
aF249631.33640552996
aF228.284442415249
aF293844.67209526314
aF172800.67998300013
aF258922.5589225591
aF528941.1981058343
aF180061.713743176
aF572357.7235772362
aF211189.09991742394
aF663472.5074150125
aF292470.98056820396
aF203092.54558042905
aF194806.86007373003
aF545862.0403419937
aF877051.1779041431
aF330639.09029676305
aF249330.03154788192
aF605900.7289135717
aF514194.4641589781
aF748455.5017532144
aF199160.32537391796
aF189408.7776568731
aF650252.0356727414
aF300820.82378170494
aF832729.0604068085
aF224486.14834673825
aF887319.1373191371
aF213934.42622950807
aF61143.4440260185
aF223791.21225493302
aF8295.80469305523
aF320824.96805986494
aF512236.004022796
aF215334.87666640113
aF14670.837056895996
aF697190.3881700555
aF907631.5789473685
aF857968.43743054
aF19903.929684705407
aF395827.639610094
aF684525.4897532887
aF871951.8576661432
aF8016.347060672743
aF337041.64825896604
aF814241.577166397
aF336580.7397189411
aF327470.4929414488
aF277089.78328173386
aF855907.6505205976
aF200694.66371960816
aF435780.1944307133
aF151342.09023415198
aF838977.5220924026
aF908775.1668746948
aF470704.76945173607
aF133711.25442063704
aF22958.156187066503
aF6930.693069306927
aF702473.8344433868
aF169819.17677849182
aF49591.54679453033
aF67206.439837132
aF105594.79003679106
aF600424.1702634321
aF223951.2195121949
aF463945.34873914125
aF69610.22797986082
aF86256.67677205137
aF697481.9441733358
aF853360.1474777944
aF716694.1706435926
aF274597.53476334584
aF254268.4891159278
aF663201.1967090502
aF327685.6885568491
aF207210.38798007107
aF13859.350630937202
aF125622.64999839307
aF93273.39187429105
aF159250.684066512
aF32183.71537526721
aF39757.4123989218
aF1054.1680181641295
aF819601.3116119293
aF313902.8703577742
aF902310.12531529
aF521837.1231092856
aF926370.1789998155
aF848949.7285815433
aF738816.2422573989
aF774162.1200311766
aF654942.1918254357
aF659835.8428004567
aF734602.936347859
aF690588.6985627095
aF650768.268094278
aF206922.24119199117
aF269990.41933819716
aF602686.461647225
aF560674.8529563509
aF154599.1348005939
aF748540.9288172795
aF394326.3265674879
aF970297.6335691633
aF693126.362786834
aF257058.76942886013
aF878158.7553265288
aF730492.6921263554
aF340587.8738222041
aF845770.8690601318
aF928953.8983936268
aF681733.3996518279
aF516135.7593451851
aF773789.7310513448
aF595967.7419354839
aF945714.138975913
aF409854.5329872167
aF14228.170478170494
aF618556.7010309278
aF474346.84520777233
aF747611.5612528722
aF640130.2160402485
aF67174.11988582299
aF684887.6935378353
aF827783.2651333425
aF131856.0427471319
aF863261.5853492612
aF608003.9978345063
aF848834.863310804
aF632263.6929145807
aF176032.57084694912
aF64179.217437372274
aF726233.4834463305
aF170304.74080954614
aF874525.5279337076
aF764001.0090817357
aF478204.6545991872
aF632094.0119520316
aF678589.2946473232
aF356204.242538014
aF899311.7512108079
aF820027.8340080968
aF710786.0572648051
aF157817.41011304708
aF382621.69795647066
aF802149.9128413714
aF820217.0542635663
aF70835.6649878754
aF5939.49143104622
aF787004.7543581619
aF921227.7816928978
aF400584.9378503531
aF800583.474496518
aF808618.5901772426
asS'd__Bacteria.p__Patescibacteria.c__Saccharimonadia'
p29
(lp30
F729.1951508522467
aF285.8572143214458
aF0.0
aF0.0
aF404.9626329934099
aF440.981919741291
aF155.5330896648261
aF325.8390355164552
aF0.0
aF0.0
aF0.0
aF473.3447724986689
aF195.3888237592809
aF4094.2513368984014
aF0.0
aF0.0
aF0.0
aF0.0
aF0.0
aF0.0
aF0.0
aF589.2255892255893
aF321.82428394096814
aF9399.47780678851
aF6662.700773349202
aF1445.0867052023095
aF0.0
aF3302.76406079651
aF230.78698361412407
aF2468.3442859432603
aF1992.1972275255284
aF1177.9041429731901
aF18423.867823606302
aF237.45717290274393
aF138.8406803193339
aF0.0
aF0.0
aF0.0
aF362.7130939426912
aF0.0
aF0.0
aF0.0
aF0.0
aF0.0
aF0.0
aF0.0
aF378.2386685998871
aF0.0
aF146.01204599379398
aF419.04123365739196
aF0.0
aF0.0
aF517.5600739371533
aF0.0
aF0.0
aF0.0
aF136.649357748019
aF0.0
aF994.2438513867082
aF0.0
aF2289.248564199371
aF0.0
aF0.0
aF0.0
aF328.3610094755609
aF2942.5079221367087
aF0.0
aF0.0
aF0.0
aF177.92538995314592
aF0.0
aF0.0
aF0.0
aF0.0
aF0.0
aF0.0
aF0.0
aF0.0
aF0.0
aF253.73197445764816
aF0.0
aF0.0
aF0.0
aF707.1335633874533
aF0.0
aF156.15850087839198
aF0.0
aF1739.440702912449
aF0.0
aF0.0
aF0.0
aF0.0
aF6355.1841826527025
aF0.0
aF224.9574187743031
aF0.0
aF0.0
aF1466.7057788207703
aF0.0
aF121.63477132662995
aF0.0
aF0.0
aF360.33150498458605
aF0.0
aF0.0
aF0.0
aF0.0
aF0.0
aF108.55995223362095
aF217.42675436212392
aF515.97166846475
aF639.8897420752124
aF0.0
aF0.0
aF368.4869924091682
aF132.555673382821
aF309.5655763079149
aF0.0
aF399.0622038210213
aF0.0
aF0.0
aF0.0
aF0.0
aF346.8437221286289
aF0.0
aF0.0
aF663.8269624384578
aF0.0
aF2238.2491917433495
aF0.0
aF0.0
aF0.0
aF0.0
aF0.0
aF0.0
aF0.0
aF0.0
aF0.0
aF0.0
aF1141.7697431018098
aF0.0
aF141.1034288133199
aF345.7488606003457
aF0.0
aF374.7969849664762
aF151.316453142338
aF1099.9848277954795
aF0.0
aF0.0
aF0.0
aF428.70922796613235
aF0.0
aF0.0
aF5402.659770964173
aF3088.2765812377233
aF9379.68984492245
aF563.1687629059511
aF0.0
aF0.0
aF933.665303218922
aF0.0
aF0.0
aF464.8460197559562
aF0.0
aF6481.99962693527
aF371.218214440389
aF0.0
aF0.0
aF7262.9783085547215
aF0.0
aF676.4984440535787
asS'd__Bacteria.p__Actinobacteriota.c__Actinobacteria'
p31
(lp32
F56968.37116033177
aF2072.4648038304886
aF349801.7529215359
aF490.2201088288639
aF2172.0723042373793
aF88441.37390366991
aF12675.946807683305
aF288937.7647442162
aF2555.51138622295
aF298443.2058427831
aF43092.08243702728
aF7336.843973729368
aF12179.236680995195
aF473596.25668449217
aF15067.513189662895
aF16938.72722971369
aF289181.1853390253
aF552.9953917050689
aF248525.662976068
aF3589.8782943700216
aF153463.6634084151
aF21801.346801346812
aF47629.99402326333
aF44338.950866366
aF10152.686892722602
aF202807.59702724993
aF198113.92501330885
aF366350.285384467
aF4912.465794072071
aF38467.703157557306
aF5271.021831161276
aF1056.0519902518301
aF72546.45588177031
aF3968.9270328030093
aF833.0440819160004
aF6032.647267565651
aF185590.2487894471
aF461033.8493833639
aF641639.4631846213
aF205651.4152772391
aF307180.35938770993
aF136606.64905057492
aF430265.11766458146
aF3139.5031395031406
aF389754.0983606561
aF60664.1561109209
aF618924.5413856141
aF808189.1443470019
aF480124.1102390949
aF438107.609788803
aF260796.67917298613
aF5585.344057193918
aF57412.199630314244
aF438.59649122807025
aF45899.0886863748
aF943405.3860698043
aF199462.512526191
aF195562.5811550839
aF24856.096284667707
aF133710.57319501208
aF6867.745692598101
aF11151.978814182701
aF67204.06931632043
aF592301.1648538148
aF2626.888075804479
aF85015.84427342686
aF564066.9403220714
aF2471.576866040532
aF587444.537187541
aF22477.90759741419
aF488.41374070657184
aF198.10806795106703
aF82587.89265654252
aF5683.5981203848705
aF13861.386138613892
aF49381.541389153186
aF541874.8512966924
aF665.9563132658503
aF688866.008330603
aF292003.21393834316
aF6883.464801309721
aF93365.85365853655
aF37108.88082988952
aF77897.83334276183
aF2057.1676050238198
aF4411.477649814559
aF70806.10021786485
aF18598.635208063894
aF214326.4464622539
aF13668.36946016839
aF62116.67913238592
aF575125.9046793182
aF7806.676866344983
aF0.0
aF4306.327730822381
aF1176.4211587748405
aF5725.110503051991
aF190085.06893517202
aF673.8544474393531
aF863404.1518001946
aF4372.0397647426225
aF4285.131274656514
aF240.22100332305698
aF4908.344185114687
aF415.20575751983824
aF472.0320981826762
aF0.0
aF974.2790335151985
aF10096.075557726796
aF0.0
aF123270.32224775999
aF38442.60681236463
aF278.10609747618696
aF0.0
aF265126.39103839616
aF60312.8313891835
aF0.0
aF0.0
aF1047.5382850301808
aF387158.94717822096
aF9758.477677482311
aF19883.708856816498
aF47686.93092982622
aF4657.615697155879
aF94354.07826496944
aF53205.65342072922
aF2157.4376279249896
aF5615.776413739059
aF51106.68987813979
aF1042.6985037276504
aF161760.39119804397
aF1802.6565464895596
aF6573.879102254629
aF342.85154528089276
aF16956.86070686069
aF2789.5694360218295
aF13172.258205370808
aF44322.167130245514
aF89730.68955312214
aF4662.226450999049
aF57207.23995057063
aF3315.9305771130175
aF2011.6297344020088
aF44436.583308389316
aF114479.65685253806
aF2017.55270856451
aF8951.600667576995
aF114158.67573793307
aF2611.0648603647887
aF17023.803632404615
aF274373.9058983242
aF6415.396952686447
aF946.0141271442988
aF25166.23568526041
aF7901.1751494003975
aF20635.317658829375
aF1877.2292096864999
aF2141.21845526383
aF37449.392712550594
aF62555.5753156678
aF1918.132473574661
aF295564.0471839177
aF139511.91167925607
aF4031.0077519379815
aF188957.28408878902
aF311080.863701046
aF0.0
aF22629.394722417997
aF419156.7145990741
aF752.870318087709
aF19889.05425517519
asS'd__Bacteria.p__Firmicutes.c__Incertae_Sedis'
p33
(lp34
F0.0
aF0.0
aF0.0
aF0.0
aF0.0
aF0.0
aF0.0
aF448.0286738351254
aF0.0
aF0.0
aF0.0
aF0.0
aF0.0
aF0.0
aF0.0
aF0.0
aF0.0
aF0.0
aF0.0
aF0.0
aF0.0
aF0.0
aF0.0
aF0.0
aF0.0
aF0.0
aF0.0
aF0.0
aF0.0
aF0.0
aF0.0
aF0.0
aF0.0
aF0.0
aF0.0
aF0.0
aF0.0
aF0.0
aF0.0
aF0.0
aF0.0
aF0.0
aF0.0
aF0.0
aF0.0
aF0.0
aF0.0
aF0.0
aF0.0
aF0.0
aF0.0
aF0.0
aF0.0
aF0.0
aF0.0
aF0.0
aF0.0
aF0.0
aF0.0
aF0.0
aF0.0
aF0.0
aF0.0
aF0.0
aF0.0
aF0.0
aF0.0
aF0.0
aF0.0
aF0.0
aF0.0
aF742.9052548165021
aF0.0
aF0.0
aF0.0
aF0.0
aF0.0
aF0.0
aF0.0
aF0.0
aF0.0
aF0.0
aF0.0
aF0.0
aF0.0
aF0.0
aF0.0
aF0.0
aF0.0
aF0.0
aF0.0
aF0.0
aF0.0
aF0.0
aF0.0
aF0.0
aF0.0
aF0.0
aF0.0
aF0.0
aF0.0
aF0.0
aF0.0
aF0.0
aF0.0
aF0.0
aF0.0
aF0.0
aF0.0
aF0.0
aF0.0
aF0.0
aF0.0
aF0.0
aF0.0
aF0.0
aF0.0
aF0.0
aF0.0
aF0.0
aF0.0
aF0.0
aF0.0
aF0.0
aF0.0
aF0.0
aF0.0
aF0.0
aF0.0
aF0.0
aF0.0
aF0.0
aF0.0
aF0.0
aF0.0
aF0.0
aF363.8745360599673
aF0.0
aF0.0
aF0.0
aF0.0
aF0.0
aF0.0
aF0.0
aF0.0
aF0.0
aF0.0
aF0.0
aF0.0
aF0.0
aF0.0
aF0.0
aF0.0
aF0.0
aF0.0
aF0.0
aF0.0
aF0.0
aF0.0
aF0.0
aF0.0
aF0.0
aF0.0
aF0.0
aF0.0
aF0.0
aF0.0
aF0.0
aF0.0
aF0.0
aF0.0
asS'd__Bacteria.p__Fusobacteriota'
p35
(lp36
F0.0
aF0.0
aF0.0
aF0.0
aF257.7034937230789
aF0.0
aF0.0
aF0.0
aF11357.8283832131
aF0.0
aF0.0
aF0.0
aF0.0
aF0.0
aF0.0
aF0.0
aF0.0
aF0.0
aF0.0
aF0.0
aF127.49681257968608
aF0.0
aF0.0
aF0.0
aF0.0
aF0.0
aF0.0
aF0.0
aF0.0
aF0.0
aF0.0
aF0.0
aF0.0
aF169.61226635910296
aF0.0
aF0.0
aF0.0
aF0.0
aF0.0
aF0.0
aF0.0
aF0.0
aF0.0
aF0.0
aF0.0
aF0.0
aF0.0
aF0.0
aF0.0
aF0.0
aF0.0
aF0.0
aF480.5914972273573
aF0.0
aF0.0
aF0.0
aF0.0
aF0.0
aF0.0
aF0.0
aF0.0
aF0.0
aF0.0
aF154.28527347064693
aF249366.73233886887
aF0.0
aF0.0
aF0.0
aF0.0
aF0.0
aF0.0
aF0.0
aF0.0
aF0.0
aF0.0
aF0.0
aF0.0
aF0.0
aF0.0
aF5412.948788429822
aF0.0
aF0.0
aF0.0
aF0.0
aF144.36263894904
aF0.0
aF0.0
aF0.0
aF0.0
aF0.0
aF0.0
aF0.0
aF0.0
aF460.7968240465051
aF0.0
aF0.0
aF0.0
aF0.0
aF0.0
aF0.0
aF0.0
aF0.0
aF0.0
aF0.0
aF0.0
aF0.0
aF0.0
aF243.5697583787999
aF0.0
aF0.0
aF140.719545944932
aF0.0
aF0.0
aF0.0
aF110.54609772275005
aF0.0
aF0.0
aF0.0
aF0.0
aF0.0
aF0.0
aF0.0
aF0.0
aF0.0
aF0.0
aF0.0
aF0.0
aF0.0
aF1803.0340711265897
aF0.0
aF0.0
aF2988.614800759009
aF0.0
aF0.0
aF0.0
aF0.0
aF0.0
aF0.0
aF947.0257472625034
aF0.0
aF0.0
aF0.0
aF0.0
aF0.0
aF0.0
aF0.0
aF0.0
aF1767.8255745433112
aF0.0
aF0.0
aF0.0
aF0.0
aF15136.226034308796
aF0.0
aF0.0
aF110805.40270135087
aF0.0
aF0.0
aF0.0
aF0.0
aF0.0
aF0.0
aF0.0
aF0.0
aF279.798545047566
aF0.0
aF237.717908082409
aF0.0
aF0.0
aF0.0
aF0.0
asS'd__Bacteria.p__Actinobacteriota'
p37
(lp38
F198614.5292133807
aF3001.500750375189
aF365818.0300500835
aF6666.993480072552
aF6700.290836800058
aF98730.95203096671
aF28384.788863830712
aF543580.9710003254
aF14197.28547901645
aF300365.17393811274
aF45590.17417250712
aF29169.871605230463
aF15696.235508662254
aF484416.7780748665
aF17839.577930787815
aF20156.1391057487
aF761393.7925464408
aF6589.861751152068
aF248525.662976068
aF8580.684703616154
aF154058.64853378697
aF24789.562289562302
aF53284.9064410832
aF56491.8110610017
aF62462.81975014871
aF277497.93559042085
aF206403.5287854588
aF409959.5972551782
aF12825.162375127753
aF48469.30597852221
aF16269.610691458469
aF5889.52071486596
aF96715.4007686517
aF9464.364462837948
aF2221.4508851093397
aF13484.740951029102
aF202120.5543496408
aF467921.80530044605
aF696118.9698948136
aF250581.62078324927
aF586925.9779634699
aF139802.1262213486
aF543342.2698838246
aF7985.25798525799
aF394437.93911007064
aF63060.59568640875
aF686187.9846182939
aF925989.5709883859
aF578828.2533309
aF442633.2551123028
aF542148.9582501794
aF5585.344057193918
aF77781.88539741226
aF32543.85964912279
aF64514.3365192265
aF943405.3860698043
aF267058.3948255442
aF204143.84915034162
aF28466.771323914178
aF150895.94467148697
aF17550.905658861804
aF96660.2913049875
aF196180.70523320948
aF621345.367584664
aF46767.98949244766
aF88501.58442734266
aF597063.4670034734
aF39915.96638655466
aF598910.5126740761
aF45430.282901370076
aF3961.5781190644107
aF4110.742409984648
aF100166.42396505094
aF6399.641978071153
aF14653.465346534686
aF72978.11607992389
aF625565.0725672133
aF1553.898064286984
aF700753.4983853602
aF321140.10233856307
aF223433.54665872877
aF99756.09756097557
aF66936.54943633864
aF115715.33631272285
aF9203.118233001298
aF181143.86101893452
aF79059.82905982899
aF23727.75522947239
aF383515.37483002176
aF23240.83022688567
aF124569.93268511594
aF599806.5570489942
aF21223.176807500688
aF2552.1054870268003
aF18414.371565382287
aF6386.286290491993
aF12544.727425805093
aF191174.62179943887
aF1317.079147267826
aF948710.6714239378
aF25555.613386769433
aF5679.499387838395
aF12971.934179445057
aF6661.324251227076
aF12732.976563941646
aF4720.320981826769
aF645.2167928423951
aF4920.109119251757
aF11887.314769581546
aF9566.777191933465
aF142220.5544350108
aF69895.64874975396
aF2850.587499130917
aF2979.978270991772
aF273454.19706684334
aF73833.51007423119
aF619.1311526158289
aF17051.375161830187
aF34169.7012021749
aF393242.1851472627
aF12015.12564040009
aF21908.420724742988
aF74266.53177595882
aF16351.204043206775
aF118694.01225836876
aF53359.278984022945
aF8353.155944017257
aF5615.776413739059
aF54339.71648843574
aF9957.770710599034
aF175582.72208638955
aF4269.449715370019
aF10733.91197165014
aF158005.58358230875
aF16956.86070686069
aF5821.710127349908
aF53707.881522451135
aF61615.67299552552
aF141935.4838709676
aF6137.012369172218
aF65639.310896271
aF7549.033441512614
aF15024.359578815
aF45715.529674276826
aF115145.96260358958
aF4993.44295369716
aF17751.47928994082
aF115122.94423313849
aF5373.495799591308
aF19498.19369525413
aF315172.7340931011
aF7805.399625768507
aF946.0141271442988
aF36433.32101957882
aF192034.65286969062
aF52088.54427213604
aF6758.0251548714095
aF16466.98954881473
aF46368.92712550605
aF71180.86430730927
aF3591.396971799372
aF344520.1306972365
aF166182.45206275408
aF16372.093023255786
aF242352.1731020328
aF312936.9547732479
aF8795.56259904913
aF34922.872132174496
aF493541.3112356815
aF5928.853754940709
aF63523.20389663098
asS'd__Bacteria.p__Verrucomicrobiota.c__Lentisphaeria'
p39
(lp40
F0.0
aF0.0
aF0.0
aF0.0
aF0.0
aF0.0
aF0.0
aF0.0
aF0.0
aF0.0
aF0.0
aF0.0
aF0.0
aF0.0
aF0.0
aF0.0
aF0.0
aF0.0
aF0.0
aF0.0
aF0.0
aF0.0
aF0.0
aF0.0
aF158.63573269879004
aF0.0
aF0.0
aF0.0
aF0.0
aF0.0
aF0.0
aF0.0
aF0.0
aF0.0
aF0.0
aF0.0
aF0.0
aF0.0
aF0.0
aF0.0
aF0.0
aF0.0
aF0.0
aF0.0
aF0.0
aF0.0
aF0.0
aF0.0
aF0.0
aF0.0
aF0.0
aF0.0
aF0.0
aF0.0
aF0.0
aF0.0
aF0.0
aF0.0
aF0.0
aF0.0
aF0.0
aF0.0
aF0.0
aF0.0
aF0.0
aF0.0
aF0.0
aF0.0
aF0.0
aF0.0
aF0.0
aF3664.99925709475
aF0.0
aF0.0
aF0.0
aF0.0
aF0.0
aF0.0
aF0.0
aF0.0
aF0.0
aF0.0
aF0.0
aF0.0
aF0.0
aF0.0
aF0.0
aF0.0
aF0.0
aF0.0
aF0.0
aF0.0
aF0.0
aF0.0
aF0.0
aF0.0
aF0.0
aF0.0
aF0.0
aF0.0
aF0.0
aF0.0
aF0.0
aF0.0
aF0.0
aF0.0
aF0.0
aF0.0
aF0.0
aF0.0
aF0.0
aF0.0
aF0.0
aF0.0
aF0.0
aF0.0
aF0.0
aF0.0
aF0.0
aF0.0
aF0.0
aF0.0
aF0.0
aF0.0
aF0.0
aF0.0
aF0.0
aF0.0
aF0.0
aF0.0
aF0.0
aF0.0
aF0.0
aF0.0
aF0.0
aF0.0
aF0.0
aF0.0
aF0.0
aF0.0
aF0.0
aF0.0
aF0.0
aF0.0
aF0.0
aF0.0
aF0.0
aF0.0
aF0.0
aF0.0
aF0.0
aF0.0
aF0.0
aF0.0
aF0.0
aF0.0
aF0.0
aF0.0
aF0.0
aF0.0
aF0.0
aF0.0
aF0.0
aF0.0
aF0.0
aF0.0
aF0.0
aF0.0
aF0.0
aF0.0
aF0.0
asS'd__Bacteria.p__Fusobacteriota.c__Fusobacteriia'
p41
(lp42
F0.0
aF0.0
aF0.0
aF0.0
aF257.7034937230789
aF0.0
aF0.0
aF0.0
aF11357.8283832131
aF0.0
aF0.0
aF0.0
aF0.0
aF0.0
aF0.0
aF0.0
aF0.0
aF0.0
aF0.0
aF0.0
aF127.49681257968608
aF0.0
aF0.0
aF0.0
aF0.0
aF0.0
aF0.0
aF0.0
aF0.0
aF0.0
aF0.0
aF0.0
aF0.0
aF169.61226635910296
aF0.0
aF0.0
aF0.0
aF0.0
aF0.0
aF0.0
aF0.0
aF0.0
aF0.0
aF0.0
aF0.0
aF0.0
aF0.0
aF0.0
aF0.0
aF0.0
aF0.0
aF0.0
aF480.5914972273573
aF0.0
aF0.0
aF0.0
aF0.0
aF0.0
aF0.0
aF0.0
aF0.0
aF0.0
aF0.0
aF154.28527347064693
aF249366.73233886887
aF0.0
aF0.0
aF0.0
aF0.0
aF0.0
aF0.0
aF0.0
aF0.0
aF0.0
aF0.0
aF0.0
aF0.0
aF0.0
aF0.0
aF5412.948788429822
aF0.0
aF0.0
aF0.0
aF0.0
aF144.36263894904
aF0.0
aF0.0
aF0.0
aF0.0
aF0.0
aF0.0
aF0.0
aF0.0
aF460.7968240465051
aF0.0
aF0.0
aF0.0
aF0.0
aF0.0
aF0.0
aF0.0
aF0.0
aF0.0
aF0.0
aF0.0
aF0.0
aF0.0
aF243.5697583787999
aF0.0
aF0.0
aF140.719545944932
aF0.0
aF0.0
aF0.0
aF110.54609772275005
aF0.0
aF0.0
aF0.0
aF0.0
aF0.0
aF0.0
aF0.0
aF0.0
aF0.0
aF0.0
aF0.0
aF0.0
aF0.0
aF1803.0340711265897
aF0.0
aF0.0
aF2988.614800759009
aF0.0
aF0.0
aF0.0
aF0.0
aF0.0
aF0.0
aF947.0257472625034
aF0.0
aF0.0
aF0.0
aF0.0
aF0.0
aF0.0
aF0.0
aF0.0
aF1767.8255745433112
aF0.0
aF0.0
aF0.0
aF0.0
aF15136.226034308796
aF0.0
aF0.0
aF110805.40270135087
aF0.0
aF0.0
aF0.0
aF0.0
aF0.0
aF0.0
aF0.0
aF0.0
aF279.798545047566
aF0.0
aF237.717908082409
aF0.0
aF0.0
aF0.0
aF0.0
asS'd__Bacteria.p__Proteobacteria'
p43
(lp44
F20508.613617719388
aF556563.9962838556
aF730.3839732888149
aF196676.30766213997
aF31881.603652026675
aF123033.9556078203
aF12287.114083521305
aF34009.44933202998
aF402521.43790107296
aF252200.65346915208
aF27340.226216084888
aF180048.51783918095
aF6838.608831574828
aF228985.62834224597
aF431592.5959044979
aF7239.17672107878
aF24306.757432406474
aF425069.12442396337
aF4337.40440588974
aF8799.579721565542
aF189885.25286867813
aF351430.9764309761
aF68410.64778630875
aF487491.09897935
aF95260.7574856237
aF411767.1345995045
aF2129.4395011027486
aF208106.2015006736
aF770663.6774257362
aF680878.3458887641
aF32829.75014526438
aF79935.01218521531
aF419351.00439795555
aF645306.8285898434
aF99895.86948976043
aF205180.97941802704
aF8766.071130405746
aF1049.5932826029916
aF60355.458832063836
aF16527.72392400156
aF739.4808844191379
aF10876.912677441192
aF13166.517724158515
aF682.5006825006831
aF380444.96487119416
aF289763.7795275586
aF2647.67068019921
aF533.301730267836
aF23179.412301514836
aF2011.397921555485
aF120220.32409994373
aF965408.1024724458
aF11460.258780037007
aF4166.666666666672
aF10946.877083796424
aF19955.030916245105
aF57620.479183747804
aF14791.396149720493
aF20094.191522763005
aF9640.574242900553
aF396160.48837302753
aF45402.3834044431
aF294637.4687473061
aF8948.545861297536
aF9897.738999906176
aF7741.059302851967
aF25923.586990843083
aF501812.4897017634
aF63172.69252734707
aF8243.876401162446
aF41623.70434688229
aF306027.437967411
aF728.1048470979822
aF572074.289550235
aF6996.699669966989
aF20409.134157944813
aF9279.08636688079
aF247735.74853489615
aF23774.9801095147
aF33873.218590096025
aF51979.461229349654
aF2682.9268292682887
aF96539.31573472773
aF348899.7001753691
aF817128.6271113037
aF62424.36072613699
aF28825.20529579356
aF64136.30078943838
aF318331.3593893933
aF538496.9395738413
aF100149.58863126411
aF5269.652803255181
aF344278.37275901355
aF152736.424216645
aF196934.1517498473
aF566404.7729087012
aF348516.10187329
aF244017.93571638106
aF24320.019603038458
aF4905.935776840738
aF26700.671420392413
aF677594.8850496535
aF13532.4498538656
aF301913.2525292998
aF738.1435689241564
aF113901.34529148003
aF249569.855471438
aF3312.5487139516786
aF12972.914291917694
aF6468.445942273197
aF30536.1414700502
aF204223.27229769615
aF16269.2067023569
aF775166.8477417356
aF33937.652000884416
aF5744.07917992223
aF396501.9089877209
aF823139.3476270165
aF188556.89130543213
aF203698.12684454594
aF0.0
aF45322.3964282006
aF509610.9629357122
aF54305.81706471108
aF2946.7232437529515
aF558838.5907414992
aF4702.107650605739
aF457.0980801880629
aF24993.782641133992
aF11678.223241749603
aF27383.863080684594
aF299335.86337760923
aF27630.835601664
aF4065.2397511877366
aF963779.8856548856
aF35476.04608853849
aF186958.73662761113
aF37489.41830934821
aF9351.879254217214
aF859514.7478591818
aF17591.04455913351
aF10864.964018625691
aF759075.9075907589
aF37334.349233992805
aF50056.21954774503
aF68041.9650963381
aF330071.30936124985
aF203514.22296030412
aF905585.4083099976
aF4998.267926956014
aF59912.114608266966
aF37957.76530339478
aF152119.07164480299
aF421961.5810860732
aF16644.607548229298
aF17758.879439719858
aF627604.65552844
aF1937.29288809585
aF10690.789473684197
aF201938.467010493
aF828388.3606089053
aF16060.253641247138
aF987.7977919814064
aF17488.372093023307
aF640552.135795561
aF3279.09422755677
aF9270.998415213951
aF2192.467308746378
aF12722.398245186436
aF126952.75738754
aF86862.4002164795
asS'd__Bacteria.p__Verrucomicrobiota.c__Verrucomicrobiae'
p45
(lp46
F75015.95114392486
aF165154.00557421587
aF469.5325542570949
aF0.0
aF110.44435445274797
aF146.993973247097
aF0.0
aF1262.626262626261
aF0.0
aF1614.4532000768806
aF902.0886822566085
aF236.67238624933395
aF43962.485345838184
aF31626.002673796815
aF402.39649467942394
aF253181.92571563792
aF153.84023691396519
aF0.0
aF266.331849484458
aF52534.80430785402
aF424.9893752656183
aF0.0
aF0.0
aF1044.3864229765
aF137259.56771762803
aF1692.8158546655695
aF0.0
aF47874.0460463028
aF197.81741452639204
aF96.16925789389322
aF622.5616336017265
aF6417.546709991881
aF0.0
aF1221.2083177855397
aF0.0
aF0.0
aF667.8911337452004
aF218577.80110207296
aF0.0
aF0.0
aF98572.80189307108
aF14625.45320469489
aF158117.36669645517
aF1228.5012285012301
aF644.0281030444963
aF560972.269770627
aF50053.583811385004
aF0.0
aF328.5271034860379
aF5028.4948038887005
aF518.8792208828933
aF0.0
aF0.0
aF482.45614035087726
aF30784.6188041787
aF0.0
aF191445.75020497403
aF508.1013944560488
aF366.3003663003661
aF0.0
aF281.13578858588704
aF2236.2807120788602
aF99534.44262436424
aF771.4263673532356
aF396660.09944647684
aF226.34676324128588
aF24218.503315440517
aF164.77179106936913
aF173439.353336555
aF0.0
aF0.0
aF55618.84007726211
aF392448.51258581213
aF392481.539494294
aF198.0198019801979
aF333.0161750713609
aF149892.93361884385
aF695435.9793997514
aF0.0
aF296.0206368672562
aF0.0
aF195.12195121951189
aF899.6092322397465
aF399502.1779713751
aF35838.02511909919
aF26976.381026742092
aF0.0
aF446.0104366442168
aF16274.071149712694
aF322.15012195683175
aF261.7801047120421
aF7971.183670746762
aF117.68859597505005
aF813696.2994470443
aF621493.0745251792
aF11848.241670518006
aF20543.043569774803
aF0.0
aF740014.702278853
aF0.0
aF8431.790974860774
aF0.0
aF7366.777435240419
aF0.0
aF2675.7704373500615
aF94.40641963653533
aF1118.37577426015
aF0.0
aF0.0
aF98929.17323476645
aF375.252122519818
aF0.0
aF0.0
aF4780.381809715973
aF0.0
aF0.0
aF154.78278815395697
aF252.61296536044682
aF0.0
aF180.69023670420995
aF0.0
aF2595.7844460596
aF0.0
aF0.0
aF14026.402640264007
aF358.4596476853751
aF5421.253526580738
aF4636.280527621779
aF0.0
aF238360.8779521401
aF0.0
aF0.0
aF102.716860972729
aF244.89396091492384
aF0.0
aF0.0
aF0.0
aF241.8672148990201
aF0.0
aF0.0
aF436.1416006396742
aF0.0
aF377.1805752003767
aF54.423249612234315
aF0.0
aF34701.906587309604
aF5727.507206797148
aF0.0
aF0.0
aF0.0
aF0.0
aF0.0
aF0.0
aF0.0
aF0.0
aF0.0
aF0.0
aF8819.78078001529
aF0.0
aF0.0
aF81.62265844998574
aF0.0
aF0.0
aF0.0
aF0.0
aF0.0
aF237.717908082409
aF469.81442330279486
aF0.0
aF0.0
aF0.0
asS'd__Bacteria.p__Bacteroidota.c__Bacteroidia'
p47
(lp48
F24428.037553550286
aF56957.049953548165
aF12207.846410684497
aF92700.62257953819
aF9903.177115929757
aF69528.1493458768
aF15164.476242320608
aF22075.594656239817
aF39638.8210574138
aF343340.3805496831
aF633890.7778780097
aF27690.66919117209
aF525335.4174807868
aF250.66844919786107
aF146114.63829026197
aF360397.4449964508
aF16653.20564593672
aF79999.99999999999
aF0.0
aF559232.9918571052
aF27624.30939226522
aF349537.03703703714
aF325824.1000413772
aF155566.104913363
aF75788.22129684713
aF454.1701073492979
aF106167.76941212293
aF26678.637850317402
aF8044.574857406612
aF8334.669017470751
aF313314.5181372958
aF5767.6685621446
aF34510.0836007766
aF48576.953085247085
aF263589.03158625483
aF187579.84386089403
aF333.9455668726002
aF0.0
aF3627.1309394269124
aF28547.886777820913
aF2957.923537676549
aF0.0
aF31992.850759606834
aF65793.06579306582
aF6147.540983606562
aF0.0
aF5106.22202609847
aF0.0
aF13323.599196933697
aF2011.3979215554803
aF1197.4135866528309
aF0.0
aF130720.88724584109
aF40789.47368421053
aF10280.0622360525
aF0.0
aF61355.561628860305
aF48721.278157285575
aF4290.947148090011
aF488892.3818505712
aF123097.31314510602
aF36780.9327644549
aF48323.131304422815
aF11262.824963357196
aF0.0
aF4753.2820280669985
aF5557.309756867704
aF4201.680672268913
aF1976.8923252646798
aF10972.065713777394
aF28110.924187333792
aF122579.36704472301
aF266850.42646141007
aF0.0
aF3894.3894389438883
aF184110.37107516697
aF11182.488698548688
aF133.19126265317007
aF175036.27088501002
aF407197.5303421152
aF13208.810834945703
aF541756.0975609757
aF30389.924376598916
aF1301.1257566329105
aF21004.763967085295
aF3669.724770642199
aF8463.214345567285
aF154676.41942821493
aF438.6542088871338
aF35252.42763127618
aF101458.48915482404
aF14074.642297301803
aF115452.51265152404
aF850.7018290089321
aF2474.531606517341
aF246292.1725977901
aF0.0
aF273310.1454134011
aF140069.835824553
aF9284.787544599416
aF20246.707958153307
aF918.2424159978236
aF54570.2045882212
aF139787.6389862769
aF52777.26517807713
aF24923.29478404531
aF5333.7921541638
aF166845.28448947793
aF56451.175161482875
aF197640.91971517092
aF24438.2944791031
aF12010.23823587321
aF320795.383438782
aF8288.064566195875
aF286240.69570344215
aF95307.5291622481
aF31782.06583427919
aF1736.7141368530688
aF21549.35900633512
aF4276.335601999639
aF1890.7050500122004
aF196812.376700239
aF27499.31021797111
aF30373.600237835693
aF72371.52286657244
aF2253.174928308071
aF80931.57050395528
aF11949.849810630798
aF14486.446157672197
aF21375.319326416808
aF19201.303993479996
aF38614.80075901329
aF11504.2884289456
aF418866.63074888574
aF779.6257796257796
aF226622.19526986094
aF255658.24903573215
aF137985.24609989102
aF172358.68600177587
aF0.0
aF167769.13571272808
aF111542.26047692992
aF46173.18874744617
aF15156.875017007304
aF144046.97455544907
aF16947.4427519419
aF1820.664542558029
aF437831.4672952272
aF18050.40490426099
aF163705.64655812315
aF34225.28669929622
aF73242.44854317026
aF7252.774974772959
aF1708.5334318433709
aF35294.589499859634
aF1375.6878439219586
aF1314.06044678055
aF61330.6143257711
aF118737.34817813797
aF133.380757602703
aF204.05664612496412
aF185855.90075870883
aF5926.786751888443
aF123038.75968992205
aF9559.7836224585
aF680.566726474046
aF190253.56576862102
aF13389.711064129697
aF25006.093102607807
aF58018.068887634094
aF22595.04803138949
asS'd__Bacteria.p__Synergistota'
p49
(lp50
F2552.1830279828587
aF0.0
aF0.0
aF0.0
aF0.0
aF0.0
aF13453.612256007505
aF0.0
aF0.0
aF0.0
aF0.0
aF0.0
aF0.0
aF0.0
aF0.0
aF0.0
aF0.0
aF783.4101382488478
aF0.0
aF0.0
aF0.0
aF1809.7643097643108
aF0.0
aF0.0
aF753.5197303192541
aF0.0
aF0.0
aF0.0
aF0.0
aF0.0
aF0.0
aF0.0
aF0.0
aF135.68981308728198
aF624.7830614370005
aF0.0
aF0.0
aF0.0
aF0.0
aF0.0
aF0.0
aF0.0
aF0.0
aF0.0
aF0.0
aF0.0
aF189.119334299943
aF0.0
aF0.0
aF0.0
aF0.0
aF0.0
aF0.0
aF0.0
aF0.0
aF0.0
aF409.94807324405605
aF0.0
aF470.9576138147571
aF0.0
aF0.0
aF0.0
aF258.6429864643501
aF0.0
aF2204.709635050189
aF0.0
aF252.60498894853214
aF0.0
aF0.0
aF0.0
aF0.0
aF0.0
aF5980.861244019142
aF0.0
aF0.0
aF0.0
aF0.0
aF0.0
aF1825.2445359666801
aF0.0
aF0.0
aF0.0
aF0.0
aF989.9869887424344
aF3175.978056878879
aF273.2773765371849
aF0.0
aF0.0
aF0.0
aF0.0
aF0.0
aF2401.3607711036307
aF353.0657879251501
aF0.0
aF0.0
aF0.0
aF0.0
aF0.0
aF91.8892428326391
aF0.0
aF0.0
aF0.0
aF0.0
aF0.0
aF0.0
aF0.0
aF0.0
aF0.0
aF0.0
aF0.0
aF0.0
aF0.0
aF208.57957310714
aF0.0
aF0.0
aF0.0
aF154.78278815395697
aF0.0
aF0.0
aF0.0
aF0.0
aF0.0
aF0.0
aF0.0
aF0.0
aF0.0
aF0.0
aF0.0
aF0.0
aF0.0
aF0.0
aF0.0
aF0.0
aF0.0
aF0.0
aF485.1425106124919
aF2183.2472163598013
aF0.0
aF0.0
aF0.0
aF0.0
aF0.0
aF125.7268584001259
aF0.0
aF0.0
aF0.0
aF0.0
aF0.0
aF0.0
aF0.0
aF0.0
aF0.0
aF0.0
aF0.0
aF0.0
aF0.0
aF0.0
aF0.0
aF0.0
aF0.0
aF0.0
aF0.0
aF0.0
aF0.0
aF0.0
aF0.0
aF0.0
aF391.51201941899586
aF0.0
aF0.0
aF0.0
asS'd__Bacteria.p__Actinobacteriota.c__Coriobacteriia'
p51
(lp52
F141646.15805304894
aF929.0359465447003
aF16016.277128547596
aF6176.773371243688
aF4528.218532562679
aF10289.5781272968
aF15708.842056147407
aF254643.20625610917
aF11641.7740927935
aF1921.9680953296208
aF2498.0917354798385
aF21833.027631501096
aF3516.9988276670583
aF10820.521390374304
aF2772.0647411249192
aF3217.4118760350084
aF472212.60720741545
aF6036.866359446999
aF0.0
aF4990.806409246132
aF594.9851253718664
aF2988.2154882154914
aF5654.912417819873
aF12152.8601946357
aF52310.13285742611
aF74690.33856317088
aF8289.603772149965
aF43609.3118707112
aF7912.696581055681
aF10001.602820964901
aF10998.588860297192
aF4833.46872461413
aF24168.9448868814
aF5495.437430034938
aF1388.406803193339
aF7452.093683463451
aF16530.30556019371
aF6887.9559170821285
aF54479.50671019223
aF44930.20550601013
aF279745.61857575993
aF3195.4771707736677
aF113077.15221924313
aF4845.75484575485
aF4683.840749414521
aF2396.4395754878497
aF67263.44323267981
aF117800.426641384
aF98704.14309180508
aF4525.64532349983
aF281352.2790771932
aF0.0
aF20369.685767098017
aF32105.26315789472
aF18615.2478328517
aF0.0
aF67595.88229935321
aF8581.267995257716
aF3610.675039246471
aF17185.371476474906
aF10683.159966263704
aF85508.3124908048
aF128976.63591688903
aF29044.202730849287
aF44141.10141664318
aF3485.7401539157986
aF32996.52668140203
aF37444.38952051413
aF11465.9754865352
aF22952.375303955887
aF3473.164378357839
aF3912.6343420335807
aF17578.531308508405
aF716.043857686283
aF792.0792079207916
aF23596.574690770693
aF83690.221270521
aF887.9417510211335
aF11887.4900547573
aF29136.888400219916
aF216550.08185741905
aF6390.243902439017
aF29827.668606449115
aF37817.50296996102
aF7145.950627977478
aF176732.38336911995
aF8253.728841964134
aF5129.120021408497
aF169188.92836776792
aF9572.460766717284
aF62453.25355273002
aF24680.652369676107
aF13416.499941155706
aF2552.1054870268003
aF14108.043834559905
aF5209.8651317171525
aF6819.616922753101
aF1089.5528642668603
aF643.224699828473
aF85306.51962374305
aF21183.573622026808
aF1394.368113181881
aF12731.713176121999
aF1752.9800661123888
aF12317.770806421806
aF4248.288883644092
aF645.2167928423951
aF3945.8300857365584
aF1791.239211854749
aF9566.777191933465
aF18950.2321872508
aF31453.041937389324
aF2572.4814016547302
aF2979.978270991772
aF8327.806028447203
aF13520.6786850477
aF619.1311526158289
aF17051.375161830187
aF33122.16291714473
aF6083.237969041738
aF2256.64796291778
aF2024.71186792649
aF26579.600846132613
aF11693.588346050896
aF24339.933993399314
aF153.62556329373206
aF6195.718316092269
aF0.0
aF3233.0266102959495
aF8915.072206871384
aF13822.330888345596
aF2466.7931688804597
aF4160.03286939551
aF157662.7320370279
aF0.0
aF3032.1406913280794
aF40535.623317080324
aF17293.505865280007
aF52204.79431784546
aF1474.7859181731696
aF8432.070945700374
aF4233.102864399598
aF13012.729844412992
aF1278.9463658875102
aF666.3057510515144
aF2975.89024513265
aF8799.878622363825
aF964.2684952054435
aF2762.4309392265186
aF2474.3900628495117
aF40798.82819477693
aF1390.0026730820593
aF0.0
aF11267.085334318406
aF184133.47772029022
aF31453.226613306662
aF4880.79594518491
aF14325.7710935509
aF8919.534412955458
aF8625.28899164147
aF1673.264498224711
aF48956.08351331885
aF26670.540383498013
aF12341.085271317805
aF53394.8890132438
aF1856.09107220194
aF8795.56259904913
aF12293.477409756497
aF74384.59663660741
aF5175.983436853
aF43634.149641455784
asS'd__Archaea.p__Euryarchaeota'
p53
(lp54
F0.0
aF0.0
aF0.0
aF0.0
aF0.0
aF0.0
aF0.0
aF0.0
aF0.0
aF0.0
aF0.0
aF0.0
aF0.0
aF0.0
aF0.0
aF0.0
aF0.0
aF368.6635944700459
aF114.142221207625
aF56650.030645302526
aF0.0
aF547.1380471380472
aF0.0
aF0.0
aF6424.747174301012
aF0.0
aF0.0
aF128.26268197267999
aF0.0
aF0.0
aF0.0
aF0.0
aF0.0
aF2747.718715017469
aF0.0
aF0.0
aF0.0
aF0.0
aF0.0
aF0.0
aF0.0
aF0.0
aF0.0
aF0.0
aF0.0
aF0.0
aF4286.70491079871
aF0.0
aF0.0
aF0.0
aF9339.825975892076
aF186.17813523979694
aF0.0
aF0.0
aF0.0
aF0.0
aF0.0
aF0.0
aF0.0
aF0.0
aF0.0
aF0.0
aF0.0
aF1658.5666898094591
aF1219.6266066235094
aF0.0
aF81654.56267761295
aF0.0
aF0.0
aF0.0
aF0.0
aF0.0
aF0.0
aF0.0
aF0.0
aF0.0
aF0.0
aF0.0
aF0.0
aF5159.216813972173
aF0.0
aF0.0
aF295549.7455792641
aF0.0
aF7326.403926663778
aF13585.789576420097
aF0.0
aF0.0
aF0.0
aF0.0
aF0.0
aF0.0
aF0.0
aF0.0
aF0.0
aF0.0
aF0.0
aF0.0
aF0.0
aF0.0
aF0.0
aF136.0359134811591
aF0.0
aF0.0
aF0.0
aF0.0
aF0.0
aF0.0
aF0.0
aF18916.12762950479
aF0.0
aF0.0
aF0.0
aF0.0
aF0.0
aF574.407917992223
aF0.0
aF0.0
aF0.0
aF0.0
aF0.0
aF0.0
aF0.0
aF0.0
aF0.0
aF0.0
aF0.0
aF0.0
aF0.0
aF0.0
aF0.0
aF0.0
aF0.0
aF244.89396091492384
aF0.0
aF1273.4990903577898
aF1892.1475875118313
aF0.0
aF0.0
aF0.0
aF0.0
aF7266.826583885984
aF0.0
aF0.0
aF0.0
aF0.0
aF0.0
aF0.0
aF0.0
aF0.0
aF0.0
aF0.0
aF0.0
aF0.0
aF0.0
aF187.5937968984488
aF0.0
aF3211.82768289574
aF0.0
aF0.0
aF0.0
aF0.0
aF0.0
aF744.1860465116282
aF0.0
aF0.0
aF0.0
aF9396.288466055908
aF0.0
aF0.0
aF3720.7414422946786
asS'd__Bacteria.p__Desulfobacterota'
p55
(lp56
F455.7469692826538
aF428.7858214821697
aF0.0
aF490.2201088288639
aF552.2217722637408
aF0.0
aF14309.044249164006
aF692.4079504724676
aF0.0
aF3805.4968287526412
aF0.0
aF1065.0257381219997
aF0.0
aF0.0
aF447.10721631047085
aF1182.8720132481697
aF0.0
aF9170.506912442397
aF0.0
aF0.0
aF0.0
aF2777.7777777777815
aF0.0
aF0.0
aF1546.6983938132103
aF0.0
aF304.2056430146778
aF769.57609183608
aF0.0
aF577.01554736336
aF56902.13331119776
aF203.08692120227502
aF0.0
aF7870.009159062379
aF3262.7559875043376
aF0.0
aF0.0
aF0.0
aF0.0
aF630.0891818534323
aF1478.9617688382796
aF553.0633564800586
aF4229.967232648204
aF0.0
aF0.0
aF684.6970215679561
aF0.0
aF0.0
aF0.0
aF419.04123365739196
aF439.05164843937126
aF0.0
aF4140.480591497233
aF0.0
aF277.83951989330996
aF0.0
aF1594.2425070602203
aF1411.3927623779093
aF16221.873364730503
aF0.0
aF481.94706614723515
aF0.0
aF172.42865764290008
aF0.0
aF9803.921568627446
aF0.0
aF2368.1717713924913
aF0.0
aF131.792821684312
aF355.8507799062928
aF5318.2829543604485
aF10400.673567431002
aF25483.66964842941
aF0.0
aF0.0
aF190.29495718363498
aF0.0
aF0.0
aF7300.97814386671
aF1268.6598722882406
aF12613.484149427002
aF5658.536585365848
aF3823.3392370189217
aF4016.518640040731
aF3500.7939945142193
aF1288.3076322467298
aF4985.754985754987
aF7760.581597609376
aF438.6542088871338
aF13346.219338211591
aF2543.006731488411
aF100.05669879598402
aF117.68859597505005
aF0.0
aF10926.503197609005
aF252.0902483088951
aF0.0
aF0.0
aF0.0
aF689.2637041842356
aF0.0
aF0.0
aF560.515674420467
aF1502.5543423820488
aF322.9378114043182
aF2360.1604909133807
aF0.0
aF925.5650818394386
aF379.9598328176738
aF4402.891775833018
aF1125.75636755945
aF5316.0070880094545
aF2363.9018285475904
aF155.2072016141551
aF0.0
aF9013.78579003181
aF3508.4098648230292
aF0.0
aF2394.373222926122
aF0.0
aF121.98097096852904
aF986.398089502648
aF1517.5204635335208
aF1090.0802695471198
aF412.54125412541316
aF0.0
aF442.5513082923049
aF0.0
aF248.69435463814995
aF260.6746259319121
aF260.79869600651995
aF1185.9582542694498
aF0.0
aF146.93637654895392
aF0.0
aF9642.207398423288
aF6185.867113019434
aF1148.8692707703503
aF355.13465522343876
aF0.0
aF8214.000145380533
aF493.8620008466207
aF0.0
aF1823.1788620098505
aF0.0
aF1311.40926056693
aF303.44409042633885
aF0.0
aF0.0
aF2276.4388578215517
aF0.0
aF855.3862603581925
aF0.0
aF0.0
aF3288.8140215778335
aF687.8439219609793
aF0.0
aF1172.57201121591
aF0.0
aF0.0
aF0.0
aF0.0
aF0.0
aF11162.790697674403
aF10305.9130759187
aF0.0
aF1743.264659271
aF1096.2336543731897
aF4338.289056787721
aF0.0
aF0.0
asS'd__Archaea.p__Euryarchaeota.c__Methanobacteria'
p57
(lp58
F0.0
aF0.0
aF0.0
aF0.0
aF0.0
aF0.0
aF0.0
aF0.0
aF0.0
aF0.0
aF0.0
aF0.0
aF0.0
aF0.0
aF0.0
aF0.0
aF0.0
aF368.6635944700459
aF114.142221207625
aF56650.030645302526
aF0.0
aF547.1380471380472
aF0.0
aF0.0
aF6424.747174301012
aF0.0
aF0.0
aF128.26268197267999
aF0.0
aF0.0
aF0.0
aF0.0
aF0.0
aF2747.718715017469
aF0.0
aF0.0
aF0.0
aF0.0
aF0.0
aF0.0
aF0.0
aF0.0
aF0.0
aF0.0
aF0.0
aF0.0
aF4286.70491079871
aF0.0
aF0.0
aF0.0
aF9339.825975892076
aF186.17813523979694
aF0.0
aF0.0
aF0.0
aF0.0
aF0.0
aF0.0
aF0.0
aF0.0
aF0.0
aF0.0
aF0.0
aF1658.5666898094591
aF1219.6266066235094
aF0.0
aF81654.56267761295
aF0.0
aF0.0
aF0.0
aF0.0
aF0.0
aF0.0
aF0.0
aF0.0
aF0.0
aF0.0
aF0.0
aF0.0
aF5159.216813972173
aF0.0
aF0.0
aF295549.7455792641
aF0.0
aF7326.403926663778
aF13585.789576420097
aF0.0
aF0.0
aF0.0
aF0.0
aF0.0
aF0.0
aF0.0
aF0.0
aF0.0
aF0.0
aF0.0
aF0.0
aF0.0
aF0.0
aF0.0
aF136.0359134811591
aF0.0
aF0.0
aF0.0
aF0.0
aF0.0
aF0.0
aF0.0
aF18916.12762950479
aF0.0
aF0.0
aF0.0
aF0.0
aF0.0
aF574.407917992223
aF0.0
aF0.0
aF0.0
aF0.0
aF0.0
aF0.0
aF0.0
aF0.0
aF0.0
aF0.0
aF0.0
aF0.0
aF0.0
aF0.0
aF0.0
aF0.0
aF0.0
aF244.89396091492384
aF0.0
aF1273.4990903577898
aF1892.1475875118313
aF0.0
aF0.0
aF0.0
aF0.0
aF7266.826583885984
aF0.0
aF0.0
aF0.0
aF0.0
aF0.0
aF0.0
aF0.0
aF0.0
aF0.0
aF0.0
aF0.0
aF0.0
aF0.0
aF187.5937968984488
aF0.0
aF3211.82768289574
aF0.0
aF0.0
aF0.0
aF0.0
aF0.0
aF744.1860465116282
aF0.0
aF0.0
aF0.0
aF9396.288466055908
aF0.0
aF0.0
aF3720.7414422946786
asS'd__Bacteria.p__Campilobacterota'
p59
(lp60
F0.0
aF0.0
aF0.0
aF0.0
aF0.0
aF0.0
aF0.0
aF162.91951775822713
aF0.0
aF0.0
aF0.0
aF0.0
aF0.0
aF0.0
aF0.0
aF0.0
aF153.84023691396519
aF0.0
aF0.0
aF0.0
aF0.0
aF0.0
aF0.0
aF0.0
aF79.31786634939522
aF0.0
aF0.0
aF0.0
aF0.0
aF641.128385959288
aF0.0
aF0.0
aF158.48488450414
aF0.0
aF0.0
aF0.0
aF0.0
aF0.0
aF0.0
aF0.0
aF0.0
aF0.0
aF0.0
aF0.0
aF0.0
aF0.0
aF0.0
aF0.0
aF0.0
aF0.0
aF0.0
aF0.0
aF0.0
aF0.0
aF0.0
aF0.0
aF0.0
aF0.0
aF0.0
aF0.0
aF0.0
aF735.618655289098
aF0.0
aF0.0
aF0.0
aF0.0
aF0.0
aF0.0
aF0.0
aF0.0
aF0.0
aF0.0
aF0.0
aF0.0
aF0.0
aF0.0
aF0.0
aF0.0
aF0.0
aF0.0
aF0.0
aF0.0
aF0.0
aF0.0
aF0.0
aF0.0
aF0.0
aF0.0
aF0.0
aF0.0
aF0.0
aF0.0
aF0.0
aF0.0
aF0.0
aF0.0
aF0.0
aF0.0
aF0.0
aF0.0
aF0.0
aF0.0
aF0.0
aF0.0
aF0.0
aF0.0
aF0.0
aF0.0
aF0.0
aF0.0
aF0.0
aF0.0
aF0.0
aF0.0
aF0.0
aF0.0
aF0.0
aF0.0
aF0.0
aF0.0
aF0.0
aF0.0
aF0.0
aF0.0
aF0.0
aF0.0
aF0.0
aF0.0
aF0.0
aF0.0
aF0.0
aF0.0
aF0.0
aF0.0
aF0.0
aF0.0
aF0.0
aF0.0
aF0.0
aF0.0
aF0.0
aF0.0
aF0.0
aF0.0
aF0.0
aF0.0
aF0.0
aF0.0
aF0.0
aF0.0
aF0.0
aF0.0
aF0.0
aF0.0
aF0.0
aF0.0
aF0.0
aF0.0
aF0.0
aF0.0
aF0.0
aF0.0
aF0.0
aF0.0
aF0.0
aF0.0
aF0.0
aF0.0
aF0.0
aF0.0
aF0.0
asS'd__Bacteria.p__Proteobacteria.c__Gammaproteobacteria'
p61
(lp62
F20508.613617719388
aF556563.9962838556
aF730.3839732888149
aF196676.30766213997
aF28641.902588079396
aF122053.995786173
aF12287.114083521305
aF31891.495601173025
aF402521.43790107296
aF252200.65346915208
aF27340.226216084888
aF180048.51783918095
aF6512.9607919760265
aF228191.8449197861
aF431592.5959044979
aF7002.602318429147
aF23191.415714780225
aF423271.8894009219
aF3234.0296008827004
aF8230.452674897124
aF189885.25286867813
aF351430.9764309761
aF68410.64778630875
aF487491.09897935
aF91651.79456672622
aF411643.2700247729
aF2129.4395011027486
aF207240.42839735802
aF770663.6774257362
aF680012.822567719
aF31916.65974931518
aF79935.01218521531
aF418756.686081065
aF645205.0612300278
aF99895.86948976043
aF205180.97941802704
aF8766.071130405746
aF655.9958016268698
aF60355.458832063836
aF16285.381930981006
aF739.4808844191379
aF10876.912677441192
aF13166.517724158515
aF682.5006825006831
aF380444.96487119416
aF289626.840123245
aF2647.67068019921
aF533.301730267836
aF22923.891221025693
aF1759.9731813610501
aF119661.53109283907
aF965408.1024724458
aF11460.258780037007
aF4166.666666666672
aF10835.7412758391
aF19955.030916245105
aF57620.479183747804
aF14791.396149720493
aF20094.191522763005
aF9640.574242900553
aF395799.0280734171
aF33191.1137266441
aF294637.4687473061
aF8948.545861297536
aF9897.738999906176
aF7605.251244907196
aF25797.28449636882
aF501812.4897017634
aF62865.17594341701
aF8243.876401162446
aF41623.70434688229
aF306027.437967411
aF728.1048470979822
aF572074.289550235
aF6864.686468646857
aF20313.986679352995
aF9160.123721151549
aF247735.74853489615
aF23774.9801095147
aF33873.218590096025
aF51905.04539365981
aF2682.9268292682887
aF96089.51111860786
aF348899.7001753691
aF816984.2644723548
aF62424.36072613699
aF28573.82269146978
aF63690.29035279417
aF318243.62854761584
aF538404.8966818536
aF99700.82273747203
aF5269.652803255181
aF343336.8639912131
aF152736.424216645
aF196869.8782016261
aF566404.7729087012
aF348347.71627025906
aF244017.93571638106
aF24105.6113697623
aF4905.935776840738
aF26700.671420392413
aF677594.8850496535
aF13532.4498538656
aF301913.2525292998
aF738.1435689241564
aF113901.34529148003
aF249569.855471438
aF3215.1208106001586
aF12972.914291917694
aF6468.445942273197
aF30536.1414700502
aF204223.27229769615
aF16269.2067023569
aF775166.8477417356
aF33937.652000884416
aF5744.07917992223
aF396501.9089877209
aF823139.3476270165
aF188556.89130543213
aF203698.12684454594
aF0.0
aF45322.3964282006
aF509610.9629357122
aF54305.81706471108
aF2946.7232437529515
aF558838.5907414992
aF4702.107650605739
aF457.0980801880629
aF24993.782641133992
aF11678.223241749603
aF27383.863080684594
aF299193.5483870969
aF27630.835601664
aF4065.2397511877366
aF963779.8856548856
aF35476.04608853849
aF186958.73662761113
aF37489.41830934821
aF9351.879254217214
aF859514.7478591818
aF17591.04455913351
aF10864.964018625691
aF758698.7270155584
aF37334.349233992805
aF50056.21954774503
aF68041.9650963381
aF330071.30936124985
aF203514.22296030412
aF905585.4083099976
aF4998.267926956014
aF58983.24461434034
aF37957.76530339478
aF152119.07164480299
aF421961.5810860732
aF14879.878073236316
aF17446.22311155578
aF627604.65552844
aF1937.29288809585
aF10690.789473684197
aF201938.467010493
aF828388.3606089053
aF15894.113086337684
aF987.7977919814064
aF17488.372093023307
aF640552.135795561
aF3279.09422755677
aF9270.998415213951
aF1957.5600970949797
aF12527.418961735302
aF126952.75738754
aF86591.80083885806
asS'd__Bacteria.p__Firmicutes.c__Bacilli'
p63
(lp64
F21875.85452556739
aF4931.036947044947
aF34223.70617696159
aF7402.323643315848
aF1398.9618230681397
aF14748.3953157921
aF90675.79127459374
aF40078.20136852393
aF211539.553637345
aF1806.6500096098407
aF2359.308861286519
aF88515.47245725107
aF11332.551778038294
aF26069.518716577506
aF19449.163909505496
aF11071.682044002795
aF41383.02372985654
aF9400.921658986177
aF746528.174104935
aF3764.994308729532
aF16574.58563535911
aF4587.542087542092
aF14941.841754402109
aF12437.6928554474
aF32480.666270077305
aF94632.53509496279
aF11407.711613050391
aF10709.9339447188
aF4319.013550492901
aF54784.4205802212
aF21001.07910683159
aF23233.143785540204
aF90494.8690518642
aF23576.105023915294
aF5345.3661922943365
aF46841.73172462741
aF35899.14843880452
aF106599.31776436597
aF50126.94958287993
aF49146.95618456772
aF6359.535606004579
aF307.2574202666988
aF13464.402740542217
aF4026.7540267540303
aF4391.100702576112
aF24375.2139678192
aF17462.0185336948
aF64529.5093624082
aF46541.33966052199
aF12655.045256453199
aF64181.36824459174
aF7000.297885016378
aF55859.519408502834
aF13114.035087719309
aF23060.6801511447
aF6822.014410547293
aF23503.689532659202
aF10105.572178625896
aF26635.269492412404
aF325212.1974221941
aF44017.832041447415
aF3854.64175371487
aF18018.794723683106
aF9989.971457224405
aF2486.1619288863885
aF36079.67406066088
aF61793.495421534644
aF15159.004778381914
aF9357.29033958617
aF82794.61479153066
aF1953.6549628262896
aF12579.862314892802
aF6864.988558352402
aF4564.779592750059
aF926666.6666666665
aF17364.414843006696
aF33012.13418986436
aF5549.635943882083
aF2901.6708007675397
aF90328.58290692275
aF18194.671826164606
aF2292.682926829269
aF36518.51227123222
aF55326.12999943432
aF8409.123718781579
aF12414.600819832096
aF24928.774928774885
aF10615.048392132394
aF6141.158924419877
aF29039.532422108678
aF4749.439042632761
aF35820.29816896241
aF278843.51339688513
aF5565.007798100101
aF20278.30446379791
aF69786.98374017903
aF458850.768259314
aF245694.17089217604
aF43923.0580740015
aF33084.657800843284
aF98787.27944620834
aF1462.386069922461
aF5124.71473755855
aF8764.900330561955
aF3229.378114043182
aF2454.5669105499205
aF1548.52030282175
aF16514.02961808259
aF150898.33360473294
aF3750.6115127466383
aF7739.57502697125
aF1772.0023626698214
aF1321.00396301189
aF1272.699053236071
aF125248.72871987606
aF43787.557440791796
aF4075.9467547208696
aF2936.625722315198
aF1396.7177133735713
aF4276.335601999639
aF11405.220785557503
aF6177.96698162185
aF7265.704037524143
aF1337.8257853532896
aF2652.050919377651
aF38252.76526013931
aF14051.004038280696
aF14496.539114535697
aF166003.48172096495
aF2241.801783014441
aF3781.581092094539
aF14373.814041745696
aF2105.69564994094
aF7934.564333643524
aF2501.2993762993788
aF1758.6416009702896
aF3929.844989447643
aF3567.5414197605514
aF2012.4297129328186
aF64938.15413891528
aF34455.18645053432
aF4303.654578806258
aF8172.245796008165
aF4598.7645922338015
aF8953.483529754725
aF4842.126500554829
aF9937.793961462596
aF7232.013714040824
aF3405.736774388858
aF643.3414163408726
aF5430.316887571004
aF3475.0066827051583
aF882.9465186680118
aF56289.25009235323
aF72353.90847471227
aF116933.46673336688
aF6851.88661535573
aF6066.78562324751
aF3289.4736842105294
aF15027.5653565712
aF9672.285026323316
aF38433.848369053565
aF24288.204532248714
aF8062.015503875972
aF17953.7399738855
aF673699.189506898
aF633.91442155309
aF7360.425965077128
aF54496.70972459181
aF6587.61528326746
aF12447.571370585794
asS'd__Bacteria.p__Campilobacterota.c__Campylobacteria'
p65
(lp66
F0.0
aF0.0
aF0.0
aF0.0
aF0.0
aF0.0
aF0.0
aF162.91951775822713
aF0.0
aF0.0
aF0.0
aF0.0
aF0.0
aF0.0
aF0.0
aF0.0
aF153.84023691396519
aF0.0
aF0.0
aF0.0
aF0.0
aF0.0
aF0.0
aF0.0
aF79.31786634939522
aF0.0
aF0.0
aF0.0
aF0.0
aF641.128385959288
aF0.0
aF0.0
aF158.48488450414
aF0.0
aF0.0
aF0.0
aF0.0
aF0.0
aF0.0
aF0.0
aF0.0
aF0.0
aF0.0
aF0.0
aF0.0
aF0.0
aF0.0
aF0.0
aF0.0
aF0.0
aF0.0
aF0.0
aF0.0
aF0.0
aF0.0
aF0.0
aF0.0
aF0.0
aF0.0
aF0.0
aF0.0
aF735.618655289098
aF0.0
aF0.0
aF0.0
aF0.0
aF0.0
aF0.0
aF0.0
aF0.0
aF0.0
aF0.0
aF0.0
aF0.0
aF0.0
aF0.0
aF0.0
aF0.0
aF0.0
aF0.0
aF0.0
aF0.0
aF0.0
aF0.0
aF0.0
aF0.0
aF0.0
aF0.0
aF0.0
aF0.0
aF0.0
aF0.0
aF0.0
aF0.0
aF0.0
aF0.0
aF0.0
aF0.0
aF0.0
aF0.0
aF0.0
aF0.0
aF0.0
aF0.0
aF0.0
aF0.0
aF0.0
aF0.0
aF0.0
aF0.0
aF0.0
aF0.0
aF0.0
aF0.0
aF0.0
aF0.0
aF0.0
aF0.0
aF0.0
aF0.0
aF0.0
aF0.0
aF0.0
aF0.0
aF0.0
aF0.0
aF0.0
aF0.0
aF0.0
aF0.0
aF0.0
aF0.0
aF0.0
aF0.0
aF0.0
aF0.0
aF0.0
aF0.0
aF0.0
aF0.0
aF0.0
aF0.0
aF0.0
aF0.0
aF0.0
aF0.0
aF0.0
aF0.0
aF0.0
aF0.0
aF0.0
aF0.0
aF0.0
aF0.0
aF0.0
aF0.0
aF0.0
aF0.0
aF0.0
aF0.0
aF0.0
aF0.0
aF0.0
aF0.0
aF0.0
aF0.0
aF0.0
aF0.0
aF0.0
aF0.0
aF0.0
asS'd__Bacteria.p__Verrucomicrobiota'
p67
(lp68
F75015.95114392486
aF165154.00557421587
aF469.5325542570949
aF0.0
aF110.44435445274797
aF146.993973247097
aF0.0
aF1262.626262626261
aF0.0
aF1614.4532000768806
aF902.0886822566085
aF236.67238624933395
aF43962.485345838184
aF31626.002673796815
aF402.39649467942394
aF253181.92571563792
aF153.84023691396519
aF0.0
aF266.331849484458
aF52534.80430785402
aF424.9893752656183
aF0.0
aF0.0
aF1044.3864229765
aF137418.20345032684
aF1692.8158546655695
aF0.0
aF47874.0460463028
aF197.81741452639204
aF96.16925789389322
aF622.5616336017265
aF6417.546709991881
aF0.0
aF1221.2083177855397
aF0.0
aF0.0
aF667.8911337452004
aF218577.80110207296
aF0.0
aF0.0
aF98572.80189307108
aF14625.45320469489
aF158117.36669645517
aF1228.5012285012301
aF644.0281030444963
aF560972.269770627
aF50053.583811385004
aF0.0
aF328.5271034860379
aF5028.4948038887005
aF518.8792208828933
aF0.0
aF0.0
aF482.45614035087726
aF30784.6188041787
aF0.0
aF191445.75020497403
aF508.1013944560488
aF366.3003663003661
aF0.0
aF281.13578858588704
aF2236.2807120788602
aF99534.44262436424
aF771.4263673532356
aF396660.09944647684
aF226.34676324128588
aF24218.503315440517
aF164.77179106936913
aF173439.353336555
aF0.0
aF0.0
aF59283.83933435686
aF392448.51258581213
aF392481.539494294
aF198.0198019801979
aF333.0161750713609
aF149892.93361884385
aF695435.9793997514
aF0.0
aF296.0206368672562
aF0.0
aF195.12195121951189
aF899.6092322397465
aF399502.1779713751
aF35838.02511909919
aF26976.381026742092
aF0.0
aF446.0104366442168
aF16274.071149712694
aF322.15012195683175
aF261.7801047120421
aF7971.183670746762
aF117.68859597505005
aF813696.2994470443
aF621493.0745251792
aF11848.241670518006
aF20543.043569774803
aF0.0
aF740014.702278853
aF0.0
aF8431.790974860774
aF0.0
aF7366.777435240419
aF0.0
aF2675.7704373500615
aF94.40641963653533
aF1118.37577426015
aF0.0
aF0.0
aF98929.17323476645
aF375.252122519818
aF0.0
aF0.0
aF4780.381809715973
aF0.0
aF0.0
aF154.78278815395697
aF252.61296536044682
aF0.0
aF180.69023670420995
aF0.0
aF2595.7844460596
aF0.0
aF0.0
aF14026.402640264007
aF358.4596476853751
aF5421.253526580738
aF4636.280527621779
aF0.0
aF238360.8779521401
aF0.0
aF0.0
aF102.716860972729
aF244.89396091492384
aF0.0
aF0.0
aF0.0
aF241.8672148990201
aF0.0
aF0.0
aF436.1416006396742
aF0.0
aF377.1805752003767
aF54.423249612234315
aF0.0
aF34701.906587309604
aF5727.507206797148
aF0.0
aF0.0
aF0.0
aF0.0
aF0.0
aF0.0
aF0.0
aF0.0
aF0.0
aF0.0
aF8819.78078001529
aF0.0
aF0.0
aF81.62265844998574
aF0.0
aF0.0
aF0.0
aF0.0
aF0.0
aF237.717908082409
aF469.81442330279486
aF0.0
aF0.0
aF0.0
asS'd__Bacteria'
p69
(lp70
F1000000.0
aF1000000.0
aF1000000.0
aF1000000.0
aF1000000.0
aF1000000.0
aF1000000.0
aF1000000.0
aF1000000.0
aF1000000.0
aF1000000.0
aF1000000.0
aF1000000.0
aF1000000.0
aF1000000.0
aF1000000.0
aF1000000.0
aF999631.3364055299
aF999885.8577787925
aF943349.9693546975
aF1000000.0
aF999452.861952862
aF1000000.0
aF1000000.0
aF993575.252825699
aF1000000.0
aF1000000.0
aF999871.7373180274
aF1000000.0
aF1000000.0
aF1000000.0
aF1000000.0
aF1000000.0
aF997252.2812849825
aF1000000.0
aF1000000.0
aF1000000.0
aF1000000.0
aF1000000.0
aF1000000.0
aF1000000.0
aF1000000.0
aF1000000.0
aF1000000.0
aF1000000.0
aF1000000.0
aF995713.2950892013
aF1000000.0
aF1000000.0
aF1000000.0
aF990660.1740241079
aF999813.8218647601
aF1000000.0
aF1000000.0
aF1000000.0
aF1000000.0
aF1000000.0
aF1000000.0
aF1000000.0
aF1000000.0
aF1000000.0
aF1000000.0
aF1000000.0
aF998341.4333101906
aF998780.3733933765
aF1000000.0
aF918345.4373223871
aF1000000.0
aF1000000.0
aF1000000.0
aF1000000.0
aF1000000.0
aF1000000.0
aF1000000.0
aF1000000.0
aF1000000.0
aF1000000.0
aF1000000.0
aF1000000.0
aF994840.7831860279
aF1000000.0
aF1000000.0
aF704450.254420736
aF1000000.0
aF992673.5960733363
aF986414.2104235799
aF1000000.0
aF1000000.0
aF1000000.0
aF1000000.0
aF1000000.0
aF1000000.0
aF1000000.0
aF1000000.0
aF1000000.0
aF1000000.0
aF1000000.0
aF1000000.0
aF1000000.0
aF1000000.0
aF1000000.0
aF999863.9640865189
aF1000000.0
aF1000000.0
aF1000000.0
aF1000000.0
aF1000000.0
aF1000000.0
aF1000000.0
aF981083.8723704951
aF1000000.0
aF1000000.0
aF1000000.0
aF1000000.0
aF1000000.0
aF999425.5920820079
aF1000000.0
aF1000000.0
aF1000000.0
aF1000000.0
aF1000000.0
aF1000000.0
aF1000000.0
aF1000000.0
aF1000000.0
aF1000000.0
aF1000000.0
aF1000000.0
aF1000000.0
aF1000000.0
aF1000000.0
aF1000000.0
aF1000000.0
aF999755.1060390851
aF1000000.0
aF998726.5009096422
aF998107.8524124882
aF1000000.0
aF1000000.0
aF1000000.0
aF1000000.0
aF992733.1734161141
aF1000000.0
aF1000000.0
aF1000000.0
aF1000000.0
aF1000000.0
aF1000000.0
aF1000000.0
aF1000000.0
aF1000000.0
aF1000000.0
aF1000000.0
aF1000000.0
aF1000000.0
aF999812.4062031015
aF1000000.0
aF996788.1723171043
aF1000000.0
aF1000000.0
aF1000000.0
aF1000000.0
aF1000000.0
aF999255.8139534884
aF1000000.0
aF1000000.0
aF1000000.0
aF990603.711533944
aF1000000.0
aF1000000.0
aF996279.2585577052
asS'd__Bacteria.p__Firmicutes'
p71
(lp72
F677695.7433233069
aF217608.8044022014
aF620774.207011686
aF703465.8561694203
aF950189.5961418104
aF708118.9671223477
aF916245.431215491
aF397890.19224503153
aF532284.6271792838
aF98673.8420142226
aF292276.73305114155
aF761315.8984675466
aF407971.8640093786
aF250626.67112299445
aF403603.6841634624
aF357842.4414478355
aF197338.56390138817
aF478018.43317972304
aF746756.4585473503
aF314201.9087645565
aF627879.3030174245
aF268518.5185185187
aF552158.5214472899
aF290007.1208165204
aF613603.0140789216
aF307142.85714285745
aF684995.0566583009
aF303180.91451292275
aF208037.9809435889
aF258535.0216380833
aF578069.2288536563
aF900609.2607636069
aF430841.15852450585
aF284270.15841785714
aF630267.2683096146
aF593754.4357700497
aF788111.5378193356
aF312450.800314878
aF239535.72723975306
aF703712.6793330748
aF309324.85395252507
aF834142.4445400352
aF249151.02770330667
aF924310.6743106742
aF218325.5269320842
aF85518.65799383771
aF251150.47595032488
aF73477.12728134634
aF384194.1960211717
aF547477.3717733826
aF326135.5472180097
aF28820.375335120592
aF774898.336414048
aF922017.5438596492
aF883196.2658368525
aF36639.58301395064
aF420378.9742188214
aF730423.9823858185
aF929094.7148090004
aF350571.09923504124
aF460138.9614040723
aF818184.4931587465
aF360893.1804465901
aF355858.983260048
aF283750.8209025238
aF895835.2195563604
aF262961.7934954213
aF453905.0914483439
aF162368.7563150728
aF934819.9988138307
aF920985.510392359
aF497597.93967609346
aF208342.00124818028
aF29044.52897739991
aF974257.4257425742
aF721979.0675547094
aF204080.41874851318
aF55141.18273841242
aF91309.02794028174
aF225398.57064321064
aF698764.6971275489
aF349951.2195121951
aF505861.5164038119
aF128868.02059172938
aF102677.92695250468
aF710482.1393714619
aF878665.9963130549
aF747513.4918157081
aF281001.886213098
aF389341.43310782843
aF671017.2026925954
aF370376.5467098024
aF512102.310619434
aF29703.67219622861
aF149532.40993669047
aF168816.43628418984
aF618396.1271311301
aF290030.5912919581
aF94186.473903455
aF36287.7067791112
aF919065.216259824
aF315671.33723302925
aF910637.7867638227
aF550135.2298908142
aF930752.9064403027
aF854000.472032098
aF743332.7598072956
aF823752.9228371002
aF918200.0759919666
aF663858.237756156
aF800647.3099113469
aF707914.9438865922
aF657512.3409580756
aF208629.52040974688
aF405888.4221386982
aF815394.1322021917
aF566969.3530079451
aF157819.9501089396
aF752930.6130593108
aF398602.66216948756
aF985972.1883386192
aF732374.6236112552
aF387105.67460682435
aF897532.4546625707
aF791548.7977369165
aF385190.49569848436
aF899485.5341041103
aF977340.9951678202
aF901890.0770952499
aF718367.1341431628
aF777571.3121434394
aF653605.3130929789
aF950028.2471367676
aF418425.82161923905
aF18483.62785862787
aF720679.1995148571
aF493413.87089731457
aF761518.9261095659
aF675051.7904705533
aF133206.47002854416
aF740350.3670858471
aF862141.9500493858
aF178877.88778877884
aF899915.6439631011
aF690376.0463082497
aF873852.516897004
aF643225.6106812321
aF241763.53993678687
aF70990.69098615
aF809521.4529618452
aF590261.1553713696
aF880139.0002673082
aF824545.9132189709
aF534493.9046915405
aF749649.059479405
aF807716.3581790893
aF363760.09010700224
aF907060.9227631913
aF824202.9352226717
aF725813.6226213763
aF167734.56311472034
aF453563.7149028072
aF826438.1173736202
aF831193.7984496128
aF90468.19623204629
aF682732.1660582809
aF789461.1727416803
aF938141.1009317983
aF457128.9300511818
aF809100.3199698852
aF822622.1079691518
asS'd__Bacteria.p__Firmicutes.c__Negativicutes'
p73
(lp74
F14219.305441618793
aF7432.287572357605
aF1304.2570951585997
aF9657.336143928618
aF2245.7018738725496
aF81287.66720564461
aF9409.751924721984
aF1547.7354187031613
aF21409.5065023567
aF8879.492600422833
aF198320.7272222609
aF295.8404828116679
aF27028.787286700484
aF250.66844919786107
aF6661.8975230260185
aF1372.1315353678694
aF2384.5236721664623
aF218986.17511520695
aF0.0
aF16592.242360563905
aF438504.03739906533
aF5008.417508417512
aF8275.481587053475
aF97507.714217897
aF8764.624231608173
aF1321.2221304706898
aF10114.837630237993
aF0.0
aF626.4218126669082
aF8943.740984132071
aF11206.109404831092
aF324.93907392363906
aF9707.199175878599
aF11364.021846059897
aF19021.173203748687
aF32718.23988644431
aF3756.8876273167525
aF6691.157176594068
aF0.0
aF4313.687475765802
aF2144.4945648155
aF1106.1267129601192
aF11200.476616026213
aF32964.78296478301
aF0.0
aF0.0
aF9897.24516169703
aF651.813225882911
aF16827.888300784794
aF22586.3224941334
aF46619.30230701683
aF7149.240393208218
aF21848.428835489813
aF1271.929824561401
aF2167.14825516782
aF9913.638918697943
aF1047.64507606814
aF35792.920453903884
aF30507.58765044481
aF17342.55475217441
aF79079.48110365882
aF88.2742386346918
aF6293.646003965862
aF18398.51886137469
aF4174.875691903559
aF3847.894975101858
aF473.63435427849737
aF2965.8922392486425
aF1669.37574133462
aF13047.861929897394
aF10256.688554837998
aF13570.402654648102
aF67765.75826919083
aF1521.59319758335
aF40660.06600660068
aF2140.8182683158893
aF1249.1077801570286
aF0.0
aF21200.9173023822
aF29475.197699496817
aF80145.85503795212
aF123707.31707317094
aF5397.655393438472
aF3931.6626124342415
aF8012.126461671718
aF585.5943782939679
aF377.0739064856707
aF20204.27277998309
aF263.1925253322809
aF106033.41156979192
aF3066.566940912491
aF6870.559983990931
aF26048.409242477708
aF10279.313767191303
aF3631.4554744994716
aF5756.060669719763
aF294.67480530414605
aF12152.705024514904
aF10506.0034305317
aF2148.880960103789
aF676.6252016863583
aF306.08080533260824
aF3202.9467109741
aF19533.206450966583
aF1153.3493264439908
aF2596.176540004721
aF2967.9972470750204
aF33076.77318784099
aF112359.55056179795
aF271.78344295265487
aF58304.7985365167
aF15554.242961212813
aF5423.06890078565
aF434.58016451963425
aF10649.274080625006
aF168920.113114175
aF2218.553296873389
aF284.1895860305028
aF2992.9665286576524
aF0.0
aF4269.33398389851
aF33070.29384279931
aF122781.20114044005
aF18035.873550688695
aF58404.054691183424
aF6349.856616140933
aF39663.66100569779
aF33890.557659657796
aF54153.19572245709
aF199989.57301496307
aF0.0
aF43263.75711574949
aF2208.4125109136703
aF636.7242983788016
aF1754.1580041579991
aF100363.85688295898
aF14773.30616403461
aF10339.823436933104
aF32909.14471737198
aF1094.1960038058999
aF21007.48709747761
aF30055.030337237178
aF38849.599245638776
aF32055.29402160601
aF73418.56494398873
aF20175.527085645102
aF1024.1238051888895
aF58498.95537579693
aF3405.736774388858
aF82644.62809917367
aF414526.09767425235
aF2138.465650895479
aF59661.95761856709
aF0.0
aF45201.13905266114
aF12193.596798399187
aF703.960953632439
aF1682.3859291358701
aF885.6275303643719
aF0.0
aF244.86797534995713
aF32508.168577282973
aF0.0
aF2914.7286821705407
aF1678.79127028539
aF3093.48512033657
aF1822.50396196513
aF9552.893273823509
aF2047.2824762369003
aF1929.23019009976
aF1555.9464213232293
assS'subclass_sl'
p75
(dp76
g12
(I0
I100
tp77
sg10
(I100
I171
tp78
ssS'norm'
p79
F1000000.0
sS'cls'
p80
(dp81
S'class'
p82
(S'AD'
p83
S'AD'
p84
S'AD'
p85
S'AD'
p86
S'AD'
p87
S'AD'
p88
S'AD'
p89
S'AD'
p90
S'AD'
p91
S'AD'
p92
S'AD'
p93
S'AD'
p94
S'AD'
p95
S'AD'
p96
S'AD'
p97
S'AD'
p98
S'AD'
p99
S'AD'
p100
S'AD'
p101
S'AD'
p102
S'AD'
p103
S'AD'
p104
S'AD'
p105
S'AD'
p106
S'AD'
p107
S'AD'
p108
S'AD'
p109
S'AD'
p110
S'AD'
p111
S'AD'
p112
S'AD'
p113
S'AD'
p114
S'AD'
p115
S'AD'
p116
S'AD'
p117
S'AD'
p118
S'AD'
p119
S'AD'
p120
S'AD'
p121
S'AD'
p122
S'AD'
p123
S'AD'
p124
S'AD'
p125
S'AD'
p126
S'AD'
p127
S'AD'
p128
S'AD'
p129
S'AD'
p130
S'AD'
p131
S'AD'
p132
S'AD'
p133
S'AD'
p134
S'AD'
p135
S'AD'
p136
S'AD'
p137
S'AD'
p138
S'AD'
p139
S'AD'
p140
S'AD'
p141
S'AD'
p142
S'AD'
p143
S'AD'
p144
S'AD'
p145
S'AD'
p146
S'AD'
p147
S'AD'
p148
S'AD'
p149
S'AD'
p150
S'AD'
p151
S'AD'
p152
S'AD'
p153
S'AD'
p154
S'AD'
p155
S'AD'
p156
S'AD'
p157
S'AD'
p158
S'AD'
p159
S'AD'
p160
S'AD'
p161
S'AD'
p162
S'AD'
p163
S'AD'
p164
S'AD'
p165
S'AD'
p166
S'AD'
p167
S'AD'
p168
S'AD'
p169
S'AD'
p170
S'AD'
p171
S'AD'
p172
S'AD'
p173
S'AD'
p174
S'AD'
p175
S'AD'
p176
S'AD'
p177
S'AD'
p178
S'AD'
p179
S'AD'
p180
S'AD'
p181
g5
g3
g3
g3
g3
g3
g3
g3
g3
g3
g3
g3
g3
g3
g3
g3
g3
g3
g3
g3
g3
g3
g3
g3
g3
g3
g3
g3
g3
g3
g3
g3
g3
g3
g3
g3
g3
g3
g3
g3
g3
g3
g3
g3
g3
g3
g3
g3
g3
g3
g3
g3
g3
g3
g3
g3
g3
g3
g3
g3
g3
g3
g3
g3
g3
g3
g3
g3
g3
g3
g3
g3
tp182
sS'subclass'
p183
(lp184
S'AD_subcl'
p185
aS'AD_subcl'
p186
aS'AD_subcl'
p187
aS'AD_subcl'
p188
aS'AD_subcl'
p189
aS'AD_subcl'
p190
aS'AD_subcl'
p191
aS'AD_subcl'
p192
aS'AD_subcl'
p193
aS'AD_subcl'
p194
aS'AD_subcl'
p195
aS'AD_subcl'
p196
aS'AD_subcl'
p197
aS'AD_subcl'
p198
aS'AD_subcl'
p199
aS'AD_subcl'
p200
aS'AD_subcl'
p201
aS'AD_subcl'
p202
aS'AD_subcl'
p203
aS'AD_subcl'
p204
aS'AD_subcl'
p205
aS'AD_subcl'
p206
aS'AD_subcl'
p207
aS'AD_subcl'
p208
aS'AD_subcl'
p209
aS'AD_subcl'
p210
aS'AD_subcl'
p211
aS'AD_subcl'
p212
aS'AD_subcl'
p213
aS'AD_subcl'
p214
aS'AD_subcl'
p215
aS'AD_subcl'
p216
aS'AD_subcl'
p217
aS'AD_subcl'
p218
aS'AD_subcl'
p219
aS'AD_subcl'
p220
aS'AD_subcl'
p221
aS'AD_subcl'
p222
aS'AD_subcl'
p223
aS'AD_subcl'
p224
aS'AD_subcl'
p225
aS'AD_subcl'
p226
aS'AD_subcl'
p227
aS'AD_subcl'
p228
aS'AD_subcl'
p229
aS'AD_subcl'
p230
aS'AD_subcl'
p231
aS'AD_subcl'
p232
aS'AD_subcl'
p233
aS'AD_subcl'
p234
aS'AD_subcl'
p235
aS'AD_subcl'
p236
aS'AD_subcl'
p237
aS'AD_subcl'
p238
aS'AD_subcl'
p239
aS'AD_subcl'
p240
aS'AD_subcl'
p241
aS'AD_subcl'
p242
aS'AD_subcl'
p243
aS'AD_subcl'
p244
aS'AD_subcl'
p245
aS'AD_subcl'
p246
aS'AD_subcl'
p247
aS'AD_subcl'
p248
aS'AD_subcl'
p249
aS'AD_subcl'
p250
aS'AD_subcl'
p251
aS'AD_subcl'
p252
aS'AD_subcl'
p253
aS'AD_subcl'
p254
aS'AD_subcl'
p255
aS'AD_subcl'
p256
aS'AD_subcl'
p257
aS'AD_subcl'
p258
aS'AD_subcl'
p259
aS'AD_subcl'
p260
aS'AD_subcl'
p261
aS'AD_subcl'
p262
aS'AD_subcl'
p263
aS'AD_subcl'
p264
aS'AD_subcl'
p265
aS'AD_subcl'
p266
aS'AD_subcl'
p267
aS'AD_subcl'
p268
aS'AD_subcl'
p269
aS'AD_subcl'
p270
aS'AD_subcl'
p271
aS'AD_subcl'
p272
aS'AD_subcl'
p273
aS'AD_subcl'
p274
aS'AD_subcl'
p275
aS'AD_subcl'
p276
aS'AD_subcl'
p277
aS'AD_subcl'
p278
aS'AD_subcl'
p279
aS'AD_subcl'
p280
aS'AD_subcl'
p281
aS'AD_subcl'
p282
aS'AD_subcl'
p283
ag12
aS'C_subcl'
p284
aS'C_subcl'
p285
aS'C_subcl'
p286
aS'C_subcl'
p287
aS'C_subcl'
p288
aS'C_subcl'
p289
aS'C_subcl'
p290
aS'C_subcl'
p291
aS'C_subcl'
p292
aS'C_subcl'
p293
aS'C_subcl'
p294
aS'C_subcl'
p295
aS'C_subcl'
p296
aS'C_subcl'
p297
aS'C_subcl'
p298
aS'C_subcl'
p299
aS'C_subcl'
p300
aS'C_subcl'
p301
aS'C_subcl'
p302
aS'C_subcl'
p303
aS'C_subcl'
p304
aS'C_subcl'
p305
aS'C_subcl'
p306
aS'C_subcl'
p307
aS'C_subcl'
p308
aS'C_subcl'
p309
aS'C_subcl'
p310
aS'C_subcl'
p311
aS'C_subcl'
p312
aS'C_subcl'
p313
aS'C_subcl'
p314
aS'C_subcl'
p315
aS'C_subcl'
p316
aS'C_subcl'
p317
aS'C_subcl'
p318
aS'C_subcl'
p319
aS'C_subcl'
p320
aS'C_subcl'
p321
aS'C_subcl'
p322
aS'C_subcl'
p323
aS'C_subcl'
p324
aS'C_subcl'
p325
aS'C_subcl'
p326
aS'C_subcl'
p327
aS'C_subcl'
p328
aS'C_subcl'
p329
aS'C_subcl'
p330
aS'C_subcl'
p331
aS'C_subcl'
p332
aS'C_subcl'
p333
aS'C_subcl'
p334
aS'C_subcl'
p335
aS'C_subcl'
p336
aS'C_subcl'
p337
aS'C_subcl'
p338
aS'C_subcl'
p339
aS'C_subcl'
p340
aS'C_subcl'
p341
aS'C_subcl'
p342
aS'C_subcl'
p343
aS'C_subcl'
p344
aS'C_subcl'
p345
aS'C_subcl'
p346
aS'C_subcl'
p347
aS'C_subcl'
p348
aS'C_subcl'
p349
aS'C_subcl'
p350
aS'C_subcl'
p351
aS'C_subcl'
p352
aS'C_subcl'
p353
ag10
asS'subject'
p354
(S'AD01'
p355
S'AD04'
p356
S'AD05'
p357
S'AD07'
p358
S'AD08'
p359
S'AD09'
p360
S'AD10'
p361
S'AD100'
p362
S'AD101'
p363
S'AD102'
p364
S'AD103'
p365
S'AD104'
p366
S'AD105'
p367
S'AD106'
p368
S'AD107'
p369
S'AD108'
p370
S'AD109'
p371
S'AD11'
p372
S'AD110'
p373
S'AD111'
p374
S'AD112'
p375
S'AD113'
p376
S'AD114'
p377
S'AD116'
p378
S'AD118'
p379
S'AD119'
p380
S'AD12'
p381
S'AD120'
p382
S'AD121'
p383
S'AD122'
p384
S'AD123'
p385
S'AD125'
p386
S'AD126'
p387
S'AD127'
p388
S'AD13'
p389
S'AD14'
p390
S'AD16'
p391
S'AD17'
p392
S'AD18'
p393
S'AD19'
p394
S'AD20'
p395
S'AD21'
p396
S'AD22'
p397
S'AD23'
p398
S'AD24'
p399
S'AD25'
p400
S'AD26'
p401
S'AD27'
p402
S'AD29'
p403
S'AD30'
p404
S'AD31'
p405
S'AD32'
p406
S'AD33'
p407
S'AD34'
p408
S'AD35'
p409
S'AD36'
p410
S'AD37'
p411
S'AD40'
p412
S'AD41'
p413
S'AD47'
p414
S'AD50'
p415
S'AD53'
p416
S'AD54'
p417
S'AD55'
p418
S'AD58'
p419
S'AD59'
p420
S'AD60'
p421
S'AD61'
p422
S'AD62'
p423
S'AD63'
p424
S'AD64'
p425
S'AD65'
p426
S'AD66'
p427
S'AD67'
p428
S'AD68'
p429
S'AD69'
p430
S'AD70'
p431
S'AD71'
p432
S'AD74'
p433
S'AD75'
p434
S'AD76'
p435
S'AD77'
p436
S'AD78'
p437
S'AD79'
p438
S'AD80'
p439
S'AD83'
p440
S'AD84'
p441
S'AD85'
p442
S'AD86'
p443
S'AD88'
p444
S'AD89'
p445
S'AD90'
p446
S'AD91'
p447
S'AD92'
p448
S'AD93'
p449
S'AD94'
p450
S'AD96'
p451
S'AD97'
p452
S'AD98'
p453
S'AD99'
p454
S'C01'
p455
S'C02'
p456
S'C03'
p457
S'C05'
p458
S'C07'
p459
S'C08'
p460
S'C09'
p461
S'C10'
p462
S'C11'
p463
S'C12'
p464
S'C13'
p465
S'C15'
p466
S'C16'
p467
S'C17'
p468
S'C18'
p469
S'C19'
p470
S'C20'
p471
S'C21'
p472
S'C22'
p473
S'C23'
p474
S'C24'
p475
S'C25'
p476
S'C26'
p477
S'C27'
p478
S'C28'
p479
S'C29'
p480
S'C30'
p481
S'C31'
p482
S'C32'
p483
S'C33'
p484
S'C34'
p485
S'C35'
p486
S'C36'
p487
S'C39'
p488
S'C40'
p489
S'C42'
p490
S'C43'
p491
S'C44'
p492
S'C46'
p493
S'C49'
p494
S'C50'
p495
S'C51'
p496
S'C52'
p497
S'C54'
p498
S'C55'
p499
S'C57'
p500
S'C58'
p501
S'C59'
p502
S'C60'
p503
S'C61'
p504
S'C62'
p505
S'C63'
p506
S'C64'
p507
S'C71'
p508
S'C72'
p509
S'C73'
p510
S'C74'
p511
S'C75'
p512
S'C76'
p513
S'C77'
p514
S'C78'
p515
S'C79'
p516
S'C80'
p517
S'C81'
p518
S'C82'
p519
S'C83'
p520
S'C84'
p521
S'C85'
p522
S'C86'
p523
S'C87'
p524
S'C88'
p525
tp526
ss.