(dp0
S'class_sl'
p1
(dp2
S'C'
p3
(I100
I171
tp4
sS'AD'
p5
(I0
I100
tp6
ssS'class_hierarchy'
p7
(dp8
g3
(lp9
S'C_subcl'
p10
asg5
(lp11
S'AD_subcl'
p12
assS'feats'
p13
(dp14
S'd__Bacteria.p__Fusobacteriota'
p15
(lp16
F0.0
aF0.0
aF0.0
aF0.0
aF128.85174686153943
aF0.0
aF0.0
aF0.0
aF5678.914191606555
aF0.0
aF0.0
aF0.0
aF0.0
aF0.0
aF0.0
aF0.0
aF0.0
aF0.0
aF0.0
aF0.0
aF63.74840628984297
aF0.0
aF0.0
aF0.0
aF0.0
aF0.0
aF0.0
aF0.0
aF0.0
aF0.0
aF0.0
aF0.0
aF0.0
aF84.80613317955141
aF0.0
aF0.0
aF0.0
aF0.0
aF0.0
aF0.0
aF0.0
aF0.0
aF0.0
aF0.0
aF0.0
aF0.0
aF0.0
aF0.0
aF0.0
aF0.0
aF0.0
aF0.0
aF240.29574861367848
aF0.0
aF0.0
aF0.0
aF0.0
aF0.0
aF0.0
aF0.0
aF0.0
aF0.0
aF0.0
aF77.14263673532349
aF124683.36616943438
aF0.0
aF0.0
aF0.0
aF0.0
aF0.0
aF0.0
aF0.0
aF0.0
aF0.0
aF0.0
aF0.0
aF0.0
aF0.0
aF0.0
aF2706.4743942149094
aF0.0
aF0.0
aF0.0
aF0.0
aF72.18131947451995
aF0.0
aF0.0
aF0.0
aF0.0
aF0.0
aF0.0
aF0.0
aF0.0
aF230.39841202325255
aF0.0
aF0.0
aF0.0
aF0.0
aF0.0
aF0.0
aF0.0
aF0.0
aF0.0
aF0.0
aF0.0
aF0.0
aF0.0
aF121.78487918939992
aF0.0
aF0.0
aF70.35977297246599
aF0.0
aF0.0
aF0.0
aF55.27304886137493
aF0.0
aF0.0
aF0.0
aF0.0
aF0.0
aF0.0
aF0.0
aF0.0
aF0.0
aF0.0
aF0.0
aF0.0
aF0.0
aF901.517035563295
aF0.0
aF0.0
aF1494.3074003795055
aF0.0
aF0.0
aF0.0
aF0.0
aF0.0
aF0.0
aF473.51287363125203
aF0.0
aF0.0
aF0.0
aF0.0
aF0.0
aF0.0
aF0.0
aF0.0
aF883.9127872716548
aF0.0
aF0.0
aF0.0
aF0.0
aF7568.1130171544
aF0.0
aF0.0
aF55402.70135067545
aF0.0
aF0.0
aF0.0
aF0.0
aF0.0
aF0.0
aF0.0
aF0.0
aF139.89927252378294
aF0.0
aF118.85895404120451
aF0.0
aF0.0
aF0.0
aF0.0
asS'd__Bacteria.p__Campilobacterota'
p17
(lp18
F0.0
aF0.0
aF0.0
aF0.0
aF0.0
aF0.0
aF0.0
aF81.45975887911347
aF0.0
aF0.0
aF0.0
aF0.0
aF0.0
aF0.0
aF0.0
aF0.0
aF76.92011845698251
aF0.0
aF0.0
aF0.0
aF0.0
aF0.0
aF0.0
aF0.0
aF39.65893317469762
aF0.0
aF0.0
aF0.0
aF0.0
aF320.56419297964413
aF0.0
aF0.0
aF79.24244225206995
aF0.0
aF0.0
aF0.0
aF0.0
aF0.0
aF0.0
aF0.0
aF0.0
aF0.0
aF0.0
aF0.0
aF0.0
aF0.0
aF0.0
aF0.0
aF0.0
aF0.0
aF0.0
aF0.0
aF0.0
aF0.0
aF0.0
aF0.0
aF0.0
aF0.0
aF0.0
aF0.0
aF0.0
aF367.80932764454883
aF0.0
aF0.0
aF0.0
aF0.0
aF0.0
aF0.0
aF0.0
aF0.0
aF0.0
aF0.0
aF0.0
aF0.0
aF0.0
aF0.0
aF0.0
aF0.0
aF0.0
aF0.0
aF0.0
aF0.0
aF0.0
aF0.0
aF0.0
aF0.0
aF0.0
aF0.0
aF0.0
aF0.0
aF0.0
aF0.0
aF0.0
aF0.0
aF0.0
aF0.0
aF0.0
aF0.0
aF0.0
aF0.0
aF0.0
aF0.0
aF0.0
aF0.0
aF0.0
aF0.0
aF0.0
aF0.0
aF0.0
aF0.0
aF0.0
aF0.0
aF0.0
aF0.0
aF0.0
aF0.0
aF0.0
aF0.0
aF0.0
aF0.0
aF0.0
aF0.0
aF0.0
aF0.0
aF0.0
aF0.0
aF0.0
aF0.0
aF0.0
aF0.0
aF0.0
aF0.0
aF0.0
aF0.0
aF0.0
aF0.0
aF0.0
aF0.0
aF0.0
aF0.0
aF0.0
aF0.0
aF0.0
aF0.0
aF0.0
aF0.0
aF0.0
aF0.0
aF0.0
aF0.0
aF0.0
aF0.0
aF0.0
aF0.0
aF0.0
aF0.0
aF0.0
aF0.0
aF0.0
aF0.0
aF0.0
aF0.0
aF0.0
aF0.0
aF0.0
aF0.0
aF0.0
aF0.0
aF0.0
aF0.0
aF0.0
asS'd__Bacteria.p__Bacteroidota'
p19
(lp20
F12214.018776775147
aF28478.5249767741
aF6103.923205342254
aF46350.311289769124
aF4951.5885579648775
aF34764.074672938405
aF7582.238121160301
aF11037.797328119894
aF19819.410528706914
aF171670.1902748415
aF316945.38893900515
aF13845.334595586059
aF262667.7087403934
aF125.33422459893046
aF73057.31914513103
aF180198.72249822554
aF8326.60282296835
aF40000.00000000002
aF0.0
aF279616.4959285524
aF13812.154696132593
aF174768.5185185185
aF162912.0500206885
aF77783.05245668151
aF37894.11064842357
aF227.08505367464895
aF53083.88470606147
aF13339.318925158706
aF4022.287428703305
aF4167.334508735376
aF156657.25906864787
aF2883.8342810722993
aF17255.041800388288
aF24288.476542623528
aF131794.51579312744
aF93789.921930447
aF166.9727834363001
aF0.0
aF1813.5654697134562
aF14273.943388910453
aF1478.9617688382746
aF0.0
aF15996.425379803391
aF32896.53289653291
aF3073.7704918032828
aF0.0
aF2553.1110130492348
aF0.0
aF6661.799598466847
aF1005.6989607777397
aF598.7067933264151
aF0.0
aF65360.443622920495
aF20394.736842105252
aF5140.031118026248
aF0.0
aF30677.780814430167
aF24360.639078642802
aF2145.4735740450037
aF244446.1909252856
aF61548.65657255304
aF18390.46638222744
aF24161.565652211393
aF5631.412481678601
aF0.0
aF2376.6410140335006
aF2778.6548784338497
aF2100.8403361344554
aF988.4461626323399
aF5486.032856888699
aF14055.4620936669
aF61289.68352236153
aF133425.2132307051
aF0.0
aF1947.1947194719455
aF92055.18553758344
aF5591.244349274348
aF66.59563132658504
aF87518.1354425049
aF203598.76517105743
aF6604.405417472849
aF270878.0487804879
aF15194.962188299454
aF650.5628783164553
aF10502.381983542642
aF1834.8623853211004
aF4231.607172783645
aF77338.2097141075
aF219.327104443567
aF17626.21381563811
aF50729.244577412035
aF7037.3211486509035
aF57726.25632576202
aF425.35091450446606
aF1237.2658032586703
aF123146.08629889502
aF0.0
aF136655.07270670065
aF70034.9179122765
aF4642.393772299709
aF10123.35397907665
aF459.1212079989113
aF27285.102294110588
aF69893.81949313848
aF26388.632589038538
aF12461.647392022653
aF2666.896077081902
aF83422.64224473893
aF28225.587580741438
aF98820.45985758548
aF12219.147239551547
aF6005.1191179366015
aF160397.69171939092
aF4144.032283097935
aF143120.3478517208
aF47653.76458112404
aF15891.0329171396
aF868.3570684265353
aF10774.67950316755
aF2138.1678009998204
aF945.3525250061002
aF98406.18835011951
aF13749.655108985557
aF15186.800118917843
aF36185.76143328617
aF1126.5874641540358
aF40465.78525197766
aF5974.924905315403
aF7243.2230788361
aF10687.659663208398
aF9600.651996739998
aF19307.400379506656
aF5752.144214472803
aF209433.3153744428
aF389.8128898128898
aF113311.0976349305
aF127829.12451786596
aF68992.6230499455
aF86179.34300088801
aF0.0
aF83884.56785636402
aF55771.13023846499
aF23086.594373723095
aF7578.437508503651
aF72023.48727772446
aF8473.72137597095
aF910.3322712790152
aF218915.73364761344
aF9025.202452130496
aF81852.82327906153
aF17112.64334964811
aF36621.22427158516
aF3626.38748738648
aF854.2667159216854
aF17647.29474992979
aF687.8439219609794
aF657.0302233902751
aF30665.30716288557
aF59368.67408906898
aF66.6903788013515
aF102.02832306248199
aF92927.95037935438
aF2963.3933759442207
aF61519.379844961055
aF4779.891811229248
aF340.2833632370229
aF95126.78288431052
aF6694.855532064846
aF12503.046551303905
aF29009.034443817054
aF11297.524015694748
asS'd__Bacteria.p__Patescibacteria'
p21
(lp22
F364.5975754261234
aF142.928607160723
aF0.0
aF0.0
aF202.4813164967049
aF220.49095987064553
aF77.766544832413
aF162.9195177582274
aF0.0
aF0.0
aF0.0
aF236.67238624933464
aF97.69441187964046
aF2047.1256684491996
aF0.0
aF0.0
aF0.0
aF0.0
aF0.0
aF0.0
aF0.0
aF294.6127946127945
aF160.912141970484
aF4699.738903394256
aF3331.350386674602
aF722.5433526011548
aF0.0
aF1651.3820303982557
aF115.393491807062
aF1234.1721429716304
aF996.098613762764
aF588.9520714865948
aF9211.933911803144
aF118.72858645137188
aF69.42034015966698
aF0.0
aF0.0
aF0.0
aF181.35654697134564
aF0.0
aF0.0
aF0.0
aF0.0
aF0.0
aF0.0
aF0.0
aF189.11933429994346
aF0.0
aF73.00602299689697
aF209.5206168286959
aF0.0
aF0.0
aF258.7800369685765
aF0.0
aF0.0
aF0.0
aF68.32467887400955
aF0.0
aF497.1219256933538
aF0.0
aF1144.6242820996858
aF0.0
aF0.0
aF0.0
aF164.18050473778035
aF1471.2539610683552
aF0.0
aF0.0
aF0.0
aF88.96269497657298
aF0.0
aF0.0
aF0.0
aF0.0
aF0.0
aF0.0
aF0.0
aF0.0
aF0.0
aF126.86598722882398
aF0.0
aF0.0
aF0.0
aF353.5667816937267
aF0.0
aF78.07925043919602
aF0.0
aF869.7203514562251
aF0.0
aF0.0
aF0.0
aF0.0
aF3177.5920913263512
aF0.0
aF112.47870938715151
aF0.0
aF0.0
aF733.3528894103858
aF0.0
aF60.81738566331499
aF0.0
aF0.0
aF180.16575249229294
aF0.0
aF0.0
aF0.0
aF0.0
aF0.0
aF54.279976116810474
aF108.71337718106199
aF257.98583423237494
aF319.94487103760605
aF0.0
aF0.0
aF184.24349620458375
aF66.27783669141049
aF154.7827881539575
aF0.0
aF199.5311019105105
aF0.0
aF0.0
aF0.0
aF0.0
aF173.4218610643144
aF0.0
aF0.0
aF331.9134812192291
aF0.0
aF1119.124595871675
aF0.0
aF0.0
aF0.0
aF0.0
aF0.0
aF0.0
aF0.0
aF0.0
aF0.0
aF0.0
aF570.884871550905
aF0.0
aF70.55171440665998
aF172.87443030017295
aF0.0
aF187.3984924832379
aF75.658226571169
aF549.9924138977401
aF0.0
aF0.0
aF0.0
aF214.35461398306617
aF0.0
aF0.0
aF2701.3298854820864
aF1544.1382906188592
aF4689.844922461226
aF281.58438145297555
aF0.0
aF0.0
aF466.832651609461
aF0.0
aF0.0
aF232.42300987797805
aF0.0
aF3240.9998134676334
aF185.60910722019446
aF0.0
aF0.0
aF3631.489154277361
aF0.0
aF338.2492220267894
asS'd__Bacteria.p__Proteobacteria'
p23
(lp24
F10254.306808859697
aF278281.998141928
aF365.19198664440773
aF98338.15383107004
aF15940.801826013341
aF61516.977803910006
aF6143.55704176065
aF17004.72466601499
aF201260.71895053663
aF126100.326734576
aF13670.113108042457
aF90024.25891959055
aF3419.3044157874133
aF114492.81417112297
aF215796.29795224906
aF3619.588360539391
aF12153.3787162032
aF212534.56221198163
aF2168.702202944871
aF4399.789860782769
aF94942.62643433895
aF175715.488215488
aF34205.32389315435
aF243745.54948967506
aF47630.37874281182
aF205883.56729975244
aF1064.7197505513745
aF104053.10075033654
aF385331.83871286805
aF340439.17294438207
aF16414.875072632185
aF39967.50609260764
aF209675.50219897783
aF322653.4142949217
aF49947.93474488022
aF102590.48970901349
aF4383.035565202873
aF524.796641301495
aF30177.72941603192
aF8263.861962000752
aF369.7404422095689
aF5438.456338720598
aF6583.258862079247
aF341.2503412503416
aF190222.48243559717
aF144881.88976377944
aF1323.8353400996045
aF266.65086513391793
aF11589.706150757445
aF1005.6989607777397
aF60110.162049972
aF482704.0512362229
aF5730.1293900185
aF2083.3333333333353
aF5473.438541898197
aF9977.515458122552
aF28810.239591873917
aF7395.69807486025
aF10047.095761381495
aF4820.287121450277
aF198080.24418651362
aF22701.19170222154
aF147318.73437365296
aF4474.27293064877
aF4948.869499953085
aF3870.529651425986
aF12961.793495421547
aF250906.2448508815
aF31586.346263673502
aF4121.938200581224
aF20811.852173441148
aF153013.71898370556
aF364.0524235489912
aF286037.1447751175
aF3498.349834983501
aF10204.567078972392
aF4639.543183440398
aF123867.87426744806
aF11887.490054757336
aF16936.609295047998
aF25989.730614674794
aF1341.4634146341446
aF48269.65786736386
aF174449.85008768458
aF408564.3135556517
aF31212.18036306851
aF14412.602647896752
aF32068.15039471925
aF159165.6796946965
aF269248.4697869207
aF50074.79431563203
aF2634.8264016275916
aF172139.18637950657
aF76368.2121083225
aF98467.07587492351
aF283202.38645435055
aF174258.05093664504
aF122008.96785819065
aF12160.009801519249
aF2452.9678884203695
aF13350.335710196201
aF338797.4425248264
aF6766.224926932797
aF150956.62626464997
aF369.0717844620778
aF56950.67264574001
aF124784.92773571909
aF1656.2743569758388
aF6486.457145958847
aF3234.2229711365994
aF15268.070735025096
aF102111.63614884802
aF8134.603351178446
aF387583.4238708675
aF16968.82600044218
aF2872.0395899611144
aF198250.95449386048
aF411569.67381350865
aF94278.445652716
aF101849.06342227302
aF0.0
aF22661.198214100303
aF254805.48146785612
aF27152.908532355537
aF1473.3616218764737
aF279419.2953707497
aF2351.0538253028703
aF228.5490400940316
aF12496.891320567
aF5839.111620874798
aF13691.931540342297
aF149667.93168880453
aF13815.417800832007
aF2032.6198755938678
aF481889.9428274428
aF17738.023044269252
aF93479.36831380548
aF18744.709154674103
aF4675.939627108611
aF429757.37392959103
aF8795.522279566752
aF5432.482009312848
aF379537.95379537944
aF18667.174616996403
aF25028.10977387249
aF34020.98254816905
aF165035.65468062504
aF101757.11148015197
aF452792.7041549988
aF2499.133963478006
aF29956.057304133472
aF18978.882651697404
aF76059.5358224015
aF210980.7905430366
aF8322.303774114647
aF8879.439719859942
aF313802.32776422007
aF968.6464440479256
aF5345.394736842099
aF100969.2335052465
aF414194.18030445237
aF8030.12682062359
aF493.89889599070307
aF8744.186046511657
aF320276.0678977804
aF1639.5471137783848
aF4635.499207606976
aF1096.2336543731892
aF6361.199122593202
aF63476.37869377001
aF43431.20010823974
asS'd__Bacteria'
p25
(lp26
F500000.0
aF500000.0
aF499999.99999999994
aF500000.0
aF500000.0
aF500000.0
aF500000.0
aF499999.9999999999
aF500000.0
aF500000.0
aF500000.0
aF500000.00000000006
aF500000.0
aF500000.0
aF500000.00000000006
aF500000.00000000006
aF500000.0
aF499815.668202765
aF499942.92888939625
aF471674.9846773487
aF500000.0
aF499726.43097643106
aF499999.99999999994
aF500000.0
aF496787.62641284947
aF500000.0
aF500000.0
aF499935.86865901365
aF499999.99999999994
aF499999.99999999994
aF500000.0
aF500000.0
aF500000.0
aF498626.1406424911
aF500000.0
aF500000.0
aF500000.00000000006
aF500000.0
aF500000.00000000006
aF500000.00000000006
aF499999.9999999999
aF500000.0
aF500000.0
aF500000.0
aF500000.00000000006
aF500000.0
aF497856.64754460065
aF500000.0
aF500000.0
aF500000.0
aF495330.087012054
aF499906.9109323801
aF499999.99999999994
aF500000.0
aF500000.0
aF500000.0
aF500000.0
aF500000.0
aF500000.0
aF500000.0
aF500000.0
aF500000.0
aF500000.0
aF499170.7166550953
aF499390.18669668806
aF499999.99999999994
aF459172.7186611935
aF499999.99999999994
aF500000.0
aF500000.0
aF499999.99999999994
aF500000.0
aF500000.00000000006
aF500000.0
aF500000.0
aF500000.0
aF500000.0
aF500000.0
aF499999.9999999999
aF497420.3915930139
aF500000.0
aF500000.0
aF352225.12721036805
aF500000.0
aF496336.79803666804
aF493207.1052117899
aF500000.0
aF500000.00000000006
aF499999.99999999994
aF500000.0
aF500000.00000000006
aF500000.0
aF500000.0
aF500000.00000000006
aF500000.0
aF500000.0
aF500000.0
aF499999.99999999994
aF500000.0
aF500000.0
aF500000.0
aF499931.98204325937
aF499999.9999999999
aF500000.0
aF499999.9999999999
aF500000.00000000006
aF500000.0
aF500000.0
aF499999.9999999999
aF490541.9361852475
aF500000.0
aF500000.00000000006
aF500000.0
aF499999.9999999999
aF500000.0
aF499712.796041004
aF499999.99999999994
aF500000.00000000006
aF500000.0
aF500000.0
aF500000.0
aF499999.99999999994
aF499999.99999999994
aF500000.0
aF500000.0
aF500000.0
aF500000.0
aF500000.0
aF500000.0
aF500000.0
aF500000.0
aF500000.00000000006
aF500000.0
aF499877.5530195423
aF500000.0
aF499363.2504548211
aF499053.926206244
aF500000.00000000006
aF500000.0000000001
aF500000.0
aF500000.0
aF496366.58670805703
aF500000.0
aF500000.00000000006
aF500000.0
aF500000.0
aF500000.00000000006
aF500000.0
aF500000.0
aF500000.0
aF500000.0
aF500000.0
aF500000.0
aF500000.0
aF500000.0
aF499906.20310155075
aF500000.00000000006
aF498394.0861585522
aF500000.0
aF500000.0
aF500000.0
aF500000.0
aF500000.00000000006
aF499627.90697674424
aF500000.0
aF500000.0
aF500000.0
aF495301.855766972
aF500000.0
aF500000.0
aF498139.62927885266
asS'd__Archaea'
p27
(lp28
F0.0
aF0.0
aF0.0
aF0.0
aF0.0
aF0.0
aF0.0
aF0.0
aF0.0
aF0.0
aF0.0
aF0.0
aF0.0
aF0.0
aF0.0
aF0.0
aF0.0
aF184.3317972350231
aF57.07111060381252
aF28325.015322651245
aF0.0
aF273.56902356902356
aF0.0
aF0.0
aF3212.3735871505064
aF0.0
aF0.0
aF64.13134098634002
aF0.0
aF0.0
aF0.0
aF0.0
aF0.0
aF1373.8593575087336
aF0.0
aF0.0
aF0.0
aF0.0
aF0.0
aF0.0
aF0.0
aF0.0
aF0.0
aF0.0
aF0.0
aF0.0
aF2143.3524553993543
aF0.0
aF0.0
aF0.0
aF4669.912987946035
aF93.08906761989847
aF0.0
aF0.0
aF0.0
aF0.0
aF0.0
aF0.0
aF0.0
aF0.0
aF0.0
aF0.0
aF0.0
aF829.28334490473
aF609.8133033117545
aF0.0
aF40827.28133880644
aF0.0
aF0.0
aF0.0
aF0.0
aF0.0
aF0.0
aF0.0
aF0.0
aF0.0
aF0.0
aF0.0
aF0.0
aF2579.6084069860844
aF0.0
aF0.0
aF147774.87278963203
aF0.0
aF3663.2019633318873
aF6792.894788210052
aF0.0
aF0.0
aF0.0
aF0.0
aF0.0
aF0.0
aF0.0
aF0.0
aF0.0
aF0.0
aF0.0
aF0.0
aF0.0
aF0.0
aF0.0
aF68.01795674057946
aF0.0
aF0.0
aF0.0
aF0.0
aF0.0
aF0.0
aF0.0
aF9458.063814752399
aF0.0
aF0.0
aF0.0
aF0.0
aF0.0
aF287.20395899611145
aF0.0
aF0.0
aF0.0
aF0.0
aF0.0
aF0.0
aF0.0
aF0.0
aF0.0
aF0.0
aF0.0
aF0.0
aF0.0
aF0.0
aF0.0
aF0.0
aF0.0
aF122.44698045746189
aF0.0
aF636.749545178895
aF946.0737937559148
aF0.0
aF0.0
aF0.0
aF0.0
aF3633.413291942994
aF0.0
aF0.0
aF0.0
aF0.0
aF0.0
aF0.0
aF0.0
aF0.0
aF0.0
aF0.0
aF0.0
aF0.0
aF0.0
aF93.79689844922441
aF0.0
aF1605.913841447871
aF0.0
aF0.0
aF0.0
aF0.0
aF0.0
aF372.0930232558143
aF0.0
aF0.0
aF0.0
aF4698.1442330279515
aF0.0
aF0.0
aF1860.3707211473397
asS'd__Bacteria.p__Actinobacteriota'
p29
(lp30
F99307.26460669047
aF1500.7503751875952
aF182909.01502504162
aF3333.4967400362766
aF3350.1454184000286
aF49365.47601548336
aF14192.3944319154
aF271790.4855001629
aF7098.642739508205
aF150182.58696905652
aF22795.087086253563
aF14584.935802615259
aF7848.117754331096
aF242208.38903743293
aF8919.788965393904
aF10078.069552874404
aF380696.8962732205
aF3294.930875576037
aF124262.83148803405
aF4290.3423518080735
aF77029.32426689347
aF12394.781144781151
aF26642.4532205416
aF28245.905530500855
aF31231.409875074365
aF138748.96779521048
aF103201.76439272946
aF204979.7986275896
aF6412.5811875639
aF24234.652989261107
aF8134.805345729242
aF2944.7603574329796
aF48357.70038432582
aF4732.18223141897
aF1110.7254425546694
aF6742.37047551455
aF101060.27717482056
aF233960.90265022303
aF348059.48494740675
aF125290.81039162455
aF293462.98898173496
aF69901.06311067397
aF271671.1349419124
aF3992.628992628996
aF197218.9695550352
aF31530.297843204386
aF343093.9923091469
aF462994.78549419285
aF289414.1266654499
aF221316.6275561514
aF271074.47912509
aF2792.672028596959
aF38890.942698706094
aF16271.9298245614
aF32257.168259613234
aF471702.69303490216
aF133529.19741277208
aF102071.924575171
aF14233.385661957092
aF75447.97233574354
aF8775.452829430906
aF48330.14565249373
aF98090.35261660497
aF310672.68379233195
aF23383.994746223827
aF44250.79221367136
aF298531.7335017364
aF19957.9831932773
aF299455.256337038
aF22715.141450684994
aF1980.78905953221
aF2055.371204992326
aF50083.211982525536
aF3199.8209890355797
aF7326.732673267352
aF36489.05803996192
aF312782.5362836069
aF776.9490321434904
aF350376.7491926801
aF160570.05116928145
aF111716.77332936447
aF49878.04878048779
aF33468.27471816931
aF57857.668156361535
aF4601.559116500647
aF90571.93050946703
aF39529.91452991455
aF11863.8776147362
aF191757.687415011
aF11620.41511344286
aF62284.966342558044
aF299903.2785244972
aF10611.588403750355
aF1276.0527435134002
aF9207.185782691151
aF3193.1431452460006
aF6272.363712902551
aF95587.31089971912
aF658.539573633915
aF474355.3357119689
aF12777.8066933847
aF2839.7496939191938
aF6485.967089722547
aF3330.662125613544
aF6366.488281970847
aF2360.1604909133803
aF322.60839642119777
aF2460.054559625873
aF5943.6573847907475
aF4783.388595966733
aF71110.27721750549
aF34947.82437487696
aF1425.2937495654594
aF1489.989135495885
aF136727.0985334218
aF36916.75503711559
aF309.5655763079145
aF8525.687580915102
aF17084.850601087448
aF196621.09257363153
aF6007.562820200052
aF10954.210362371501
aF37133.26588797942
aF8175.602021603397
aF59347.00612918444
aF26679.63949201147
aF4176.577972008631
aF2807.8882068695307
aF27169.85824421785
aF4978.885355299514
aF87791.36104319498
aF2134.7248576850106
aF5366.955985825053
aF79002.79179115444
aF8478.430353430345
aF2910.855063674955
aF26853.940761225545
aF30807.836497762753
aF70967.741935484
aF3068.50618458611
aF32819.655448135505
aF3774.5167207563145
aF7512.179789407499
aF22857.764837138453
aF57572.98130179497
aF2496.7214768485846
aF8875.739644970403
aF57561.47211656949
aF2686.7478997956537
aF9749.096847627054
aF157586.36704655061
aF3902.699812884256
aF473.0070635721495
aF18216.660509789457
aF96017.32643484547
aF26044.272136068026
aF3379.012577435705
aF8233.494774407354
aF23184.463562753044
aF35590.43215365465
aF1795.6984858996846
aF172260.0653486183
aF83091.22603137702
aF8186.046511627907
aF121176.08655101644
aF156468.47738662397
aF4397.781299524565
aF17461.436066087237
aF246770.6556178406
aF2964.426877470356
aF31761.601948315496
asS'd__Bacteria.p__Synergistota'
p31
(lp32
F1276.0915139914296
aF0.0
aF0.0
aF0.0
aF0.0
aF0.0
aF6726.80612800375
aF0.0
aF0.0
aF0.0
aF0.0
aF0.0
aF0.0
aF0.0
aF0.0
aF0.0
aF0.0
aF391.70506912442426
aF0.0
aF0.0
aF0.0
aF904.8821548821552
aF0.0
aF0.0
aF376.75986515962717
aF0.0
aF0.0
aF0.0
aF0.0
aF0.0
aF0.0
aF0.0
aF0.0
aF67.84490654364093
aF312.39153071850035
aF0.0
aF0.0
aF0.0
aF0.0
aF0.0
aF0.0
aF0.0
aF0.0
aF0.0
aF0.0
aF0.0
aF94.55966714997147
aF0.0
aF0.0
aF0.0
aF0.0
aF0.0
aF0.0
aF0.0
aF0.0
aF0.0
aF204.9740366220281
aF0.0
aF235.47880690737838
aF0.0
aF0.0
aF0.0
aF129.32149323217496
aF0.0
aF1102.354817525094
aF0.0
aF126.30249447426596
aF0.0
aF0.0
aF0.0
aF0.0
aF0.0
aF2990.430622009572
aF0.0
aF0.0
aF0.0
aF0.0
aF0.0
aF912.6222679833389
aF0.0
aF0.0
aF0.0
aF0.0
aF494.9934943712173
aF1587.989028439439
aF136.63868826859252
aF0.0
aF0.0
aF0.0
aF0.0
aF0.0
aF1200.6803855518158
aF176.53289396257506
aF0.0
aF0.0
aF0.0
aF0.0
aF0.0
aF45.94462141631955
aF0.0
aF0.0
aF0.0
aF0.0
aF0.0
aF0.0
aF0.0
aF0.0
aF0.0
aF0.0
aF0.0
aF0.0
aF0.0
aF104.28978655356995
aF0.0
aF0.0
aF0.0
aF77.3913940769785
aF0.0
aF0.0
aF0.0
aF0.0
aF0.0
aF0.0
aF0.0
aF0.0
aF0.0
aF0.0
aF0.0
aF0.0
aF0.0
aF0.0
aF0.0
aF0.0
aF0.0
aF0.0
aF242.571255306246
aF1091.6236081798997
aF0.0
aF0.0
aF0.0
aF0.0
aF0.0
aF62.86342920006298
aF0.0
aF0.0
aF0.0
aF0.0
aF0.0
aF0.0
aF0.0
aF0.0
aF0.0
aF0.0
aF0.0
aF0.0
aF0.0
aF0.0
aF0.0
aF0.0
aF0.0
aF0.0
aF0.0
aF0.0
aF0.0
aF0.0
aF0.0
aF0.0
aF195.75600970949785
aF0.0
aF0.0
aF0.0
asS'd__Bacteria.p__Firmicutes'
p33
(lp34
F338847.8716616534
aF108804.4022011005
aF310387.10350584314
aF351732.9280847102
aF475094.79807090526
aF354059.4835611741
aF458122.71560774546
aF198945.09612251542
aF266142.3135896417
aF49336.921007111305
aF146138.36652557057
aF380657.9492337732
aF203985.9320046894
aF125313.33556149749
aF201801.84208173107
aF178921.22072391756
aF98669.281950694
aF239009.21658986164
aF373378.2292736751
aF157100.95438227846
aF313939.6515087124
aF134259.2592592595
aF276079.26072364504
aF145003.56040826003
aF306801.50703946064
aF153571.42857142846
aF342497.52832915034
aF151590.4572564611
aF104018.9904717945
aF129267.51081904155
aF289034.6144268282
aF450304.63038180344
aF215420.57926225284
aF142135.07920892836
aF315133.63415480737
aF296877.217885025
aF394055.76890966773
aF156225.400157439
aF119767.86361987659
aF351856.3396665376
aF154662.42697626248
aF417071.22227001796
aF124575.51385165344
aF462155.33715533715
aF109162.7634660421
aF42759.32899691883
aF125575.23797516248
aF36738.56364067314
aF192097.0980105859
aF273738.6858866913
aF163067.7736090045
aF14410.187667560296
aF387449.168207024
aF461008.77192982455
aF441598.1329184263
aF18319.791506975307
aF210189.4871094106
aF365211.99119290896
aF464547.35740450025
aF175285.54961752056
aF230069.48070203618
aF409092.2465793733
aF180446.59022329497
aF177929.49163002401
aF141875.41045126188
aF447917.60977818014
aF131480.89674771097
aF226952.54572417203
aF81184.3781575365
aF467409.9994069154
aF460492.7551961795
aF248798.9698380466
aF104171.00062409007
aF14522.26448869995
aF487128.71287128713
aF360989.53377735475
aF102040.20937425645
aF27570.591369206213
aF45654.5139701408
aF112699.28532160548
aF349382.3485637744
aF174975.60975609746
aF252930.75820190608
aF64434.01029586454
aF51338.96347625246
aF355241.0696857311
aF439332.9981565275
aF373756.74590785406
aF140500.943106549
aF194670.71655391413
aF335508.6013462977
aF185188.27335490112
aF256051.15530971708
aF14851.836098114303
aF74766.20496834551
aF84408.21814209502
aF309198.06356556504
aF145015.29564597917
aF47093.2369517275
aF18143.853389555647
aF459532.60812991206
aF157835.66861651491
aF455318.8933819113
aF275067.6149454069
aF465376.45322015125
aF427000.23601604905
aF371666.37990364776
aF411876.4614185502
aF459100.03799598326
aF331929.11887807795
aF400323.65495567344
aF353957.4719432961
aF328756.17047903786
aF104314.7602048735
aF202944.21106934926
aF407697.06610109593
aF283484.6765039725
aF78909.97505446953
aF376465.30652965547
aF199301.33108474352
aF492986.0941693096
aF366187.31180562754
aF193552.83730341212
aF448766.2273312853
aF395774.3988684581
aF192595.24784924215
aF449742.7670520551
aF488670.4975839102
aF450945.038547625
aF359183.56707158143
aF388785.6560717194
aF326802.6565464896
aF475014.1235683838
aF209212.91080961932
aF9241.813929313947
aF360339.5997574285
aF246706.93544865743
aF380759.463054783
aF337525.8952352765
aF66603.235014272
aF370175.18354292365
aF431070.9750246929
aF89438.94389438948
aF449957.82198155054
aF345188.02315412485
aF436926.25844850205
aF321612.80534061603
aF120881.76996839348
aF35495.34549307499
aF404760.7264809226
aF295130.5776856848
aF440069.5001336541
aF412272.9566094855
aF267246.95234577014
aF374824.5297397023
aF403858.17908954463
aF181880.04505350103
aF453530.46138159576
aF412101.46761133586
aF362906.81131068803
aF83867.28155736049
aF226781.85745140372
aF413219.05868681014
aF415596.89922480634
aF45234.09811602313
aF341366.0830291404
aF394730.5863708401
aF469070.55046589917
aF228564.46502559108
aF404550.1599849426
aF411311.0539845759
asS'd__Archaea.p__Euryarchaeota'
p35
(lp36
F0.0
aF0.0
aF0.0
aF0.0
aF0.0
aF0.0
aF0.0
aF0.0
aF0.0
aF0.0
aF0.0
aF0.0
aF0.0
aF0.0
aF0.0
aF0.0
aF0.0
aF184.3317972350231
aF57.07111060381252
aF28325.015322651245
aF0.0
aF273.56902356902356
aF0.0
aF0.0
aF3212.3735871505064
aF0.0
aF0.0
aF64.13134098634002
aF0.0
aF0.0
aF0.0
aF0.0
aF0.0
aF1373.8593575087336
aF0.0
aF0.0
aF0.0
aF0.0
aF0.0
aF0.0
aF0.0
aF0.0
aF0.0
aF0.0
aF0.0
aF0.0
aF2143.3524553993543
aF0.0
aF0.0
aF0.0
aF4669.912987946035
aF93.08906761989847
aF0.0
aF0.0
aF0.0
aF0.0
aF0.0
aF0.0
aF0.0
aF0.0
aF0.0
aF0.0
aF0.0
aF829.28334490473
aF609.8133033117545
aF0.0
aF40827.28133880644
aF0.0
aF0.0
aF0.0
aF0.0
aF0.0
aF0.0
aF0.0
aF0.0
aF0.0
aF0.0
aF0.0
aF0.0
aF2579.6084069860844
aF0.0
aF0.0
aF147774.87278963203
aF0.0
aF3663.2019633318873
aF6792.894788210052
aF0.0
aF0.0
aF0.0
aF0.0
aF0.0
aF0.0
aF0.0
aF0.0
aF0.0
aF0.0
aF0.0
aF0.0
aF0.0
aF0.0
aF0.0
aF68.01795674057946
aF0.0
aF0.0
aF0.0
aF0.0
aF0.0
aF0.0
aF0.0
aF9458.063814752399
aF0.0
aF0.0
aF0.0
aF0.0
aF0.0
aF287.20395899611145
aF0.0
aF0.0
aF0.0
aF0.0
aF0.0
aF0.0
aF0.0
aF0.0
aF0.0
aF0.0
aF0.0
aF0.0
aF0.0
aF0.0
aF0.0
aF0.0
aF0.0
aF122.44698045746189
aF0.0
aF636.749545178895
aF946.0737937559148
aF0.0
aF0.0
aF0.0
aF0.0
aF3633.413291942994
aF0.0
aF0.0
aF0.0
aF0.0
aF0.0
aF0.0
aF0.0
aF0.0
aF0.0
aF0.0
aF0.0
aF0.0
aF0.0
aF93.79689844922441
aF0.0
aF1605.913841447871
aF0.0
aF0.0
aF0.0
aF0.0
aF0.0
aF372.0930232558143
aF0.0
aF0.0
aF0.0
aF4698.1442330279515
aF0.0
aF0.0
aF1860.3707211473397
asS'd__Bacteria.p__Verrucomicrobiota'
p37
(lp38
F37507.97557196244
aF82577.002787108
aF234.76627712854764
aF0.0
aF55.22217722637397
aF73.49698662354851
aF0.0
aF631.3131313131297
aF0.0
aF807.22660003844
aF451.04434112830467
aF118.33619312466708
aF21981.242672919092
aF15813.001336898398
aF201.19824733971208
aF126590.96285781906
aF76.92011845698251
aF0.0
aF133.16592474222904
aF26267.402153926992
aF212.4946876328089
aF0.0
aF0.0
aF522.1932114882501
aF68709.10172516352
aF846.4079273327848
aF0.0
aF23937.02302315141
aF98.908707263196
aF48.08462894694662
aF311.2808168008632
aF3208.7733549959394
aF0.0
aF610.6041588927694
aF0.0
aF0.0
aF333.9455668726002
aF109288.90055103651
aF0.0
aF0.0
aF49286.40094653554
aF7312.7266023474485
aF79058.68334822745
aF614.2506142506152
aF322.01405152224834
aF280486.13488531334
aF25026.791905692495
aF0.0
aF164.26355174301892
aF2514.247401944349
aF259.4396104414465
aF0.0
aF0.0
aF241.22807017543852
aF15392.309402089342
aF0.0
aF95722.87510248706
aF254.05069722802452
aF183.1501831501829
aF0.0
aF140.56789429294358
aF1118.1403560394294
aF49767.22131218209
aF385.71318367661803
aF198330.0497232383
aF113.17338162064303
aF12109.251657720246
aF82.38589553468451
aF86719.6766682775
aF0.0
aF0.0
aF29641.919667178463
aF196224.25629290612
aF196240.769747147
aF99.00990099009903
aF166.50808753568037
aF74946.46680942197
aF347717.98969987564
aF0.0
aF148.01031843362796
aF0.0
aF97.56097560975597
aF449.8046161198731
aF199751.08898568762
aF17919.01255954959
aF13488.190513371053
aF0.0
aF223.0052183221085
aF8137.035574856351
aF161.0750609784161
aF130.8900523560211
aF3985.5918353733823
aF58.844297987525024
aF406848.14972352213
aF310746.53726258955
aF5924.120835259001
aF10271.521784887402
aF0.0
aF370007.3511394265
aF0.0
aF4215.895487430385
aF0.0
aF3683.3887176202084
aF0.0
aF1337.8852186750294
aF47.20320981826766
aF559.1878871300754
aF0.0
aF0.0
aF49464.58661738323
aF187.62606125990894
aF0.0
aF0.0
aF2390.190904857985
aF0.0
aF0.0
aF77.3913940769785
aF126.30648268022354
aF0.0
aF90.34511835210502
aF0.0
aF1297.8922230298
aF0.0
aF0.0
aF7013.201320131993
aF179.22982384268764
aF2710.6267632903705
aF2318.1402638108907
aF0.0
aF119180.43897606997
aF0.0
aF0.0
aF51.358430486364526
aF122.44698045746189
aF0.0
aF0.0
aF0.0
aF120.93360744951002
aF0.0
aF0.0
aF218.07080031983708
aF0.0
aF188.59028760018845
aF27.211624806117154
aF0.0
aF17350.953293654802
aF2863.7536033985757
aF0.0
aF0.0
aF0.0
aF0.0
aF0.0
aF0.0
aF0.0
aF0.0
aF0.0
aF0.0
aF4409.8903900076475
aF0.0
aF0.0
aF40.81132922499284
aF0.0
aF0.0
aF0.0
aF0.0
aF0.0
aF118.85895404120451
aF234.90721165139732
aF0.0
aF0.0
aF0.0
asS'd__Bacteria.p__Desulfobacterota'
p39
(lp40
F227.87348464132697
aF214.392910741085
aF0.0
aF245.1100544144321
aF276.11088613187036
aF0.0
aF7154.522124582
aF346.20397523623336
aF0.0
aF1902.74841437632
aF0.0
aF532.5128690610003
aF0.0
aF0.0
aF223.55360815523557
aF591.4360066240853
aF0.0
aF4585.253456221202
aF0.0
aF0.0
aF0.0
aF1388.8888888888903
aF0.0
aF0.0
aF773.3491969066054
aF0.0
aF152.10282150733894
aF384.78804591804015
aF0.0
aF288.5077736816801
aF28451.066655598872
aF101.54346060113747
aF0.0
aF3935.0045795311867
aF1631.3779937521692
aF0.0
aF0.0
aF0.0
aF0.0
aF315.04459092671607
aF739.4808844191398
aF276.53167824002946
aF2114.983616324099
aF0.0
aF0.0
aF342.3485107839779
aF0.0
aF0.0
aF0.0
aF209.5206168286959
aF219.52582421968552
aF0.0
aF2070.240295748615
aF0.0
aF138.91975994665492
aF0.0
aF797.1212535301105
aF705.696381188955
aF8110.936682365246
aF0.0
aF240.9735330736177
aF0.0
aF86.21432882144998
aF0.0
aF4901.960784313721
aF0.0
aF1184.0858856962448
aF0.0
aF65.896410842156
aF177.92538995314644
aF2659.1414771802247
aF5200.336783715503
aF12741.83482421471
aF0.0
aF0.0
aF95.14747859181743
aF0.0
aF0.0
aF3650.4890719333507
aF634.3299361441199
aF6306.742074713498
aF2829.2682926829243
aF1911.6696185094604
aF2008.259320020366
aF1750.3969972571088
aF644.1538161233652
aF2492.877492877495
aF3880.2907988046904
aF219.327104443567
aF6673.109669105805
aF1271.503365744206
aF50.02834939799203
aF58.844297987525024
aF0.0
aF5463.251598804501
aF126.04512415444752
aF0.0
aF0.0
aF0.0
aF344.63185209211787
aF0.0
aF0.0
aF280.2578372102334
aF751.2771711910248
aF161.46890570215893
aF1180.0802454566901
aF0.0
aF462.78254091971917
aF189.9799164088369
aF2201.4458879165095
aF562.8781837797248
aF2658.0035440047254
aF1181.9509142737945
aF77.60360080707751
aF0.0
aF4506.892895015904
aF1754.204932411515
aF0.0
aF1197.18661146306
aF0.0
aF60.99048548426452
aF493.19904475132404
aF758.7602317667604
aF545.0401347735598
aF206.2706270627063
aF0.0
aF221.27565414615256
aF0.0
aF124.347177319075
aF130.33731296595596
aF130.39934800325997
aF592.9791271347252
aF0.0
aF73.46818827447693
aF0.0
aF4821.103699211645
aF3092.9335565097144
aF574.434635385175
aF177.5673276117195
aF0.0
aF4107.000072690266
aF246.93100042331045
aF0.0
aF911.5894310049251
aF0.0
aF655.704630283465
aF151.72204521316954
aF0.0
aF0.0
aF1138.2194289107754
aF0.0
aF427.6931301790966
aF0.0
aF0.0
aF1644.4070107889142
aF343.9219609804897
aF0.0
aF586.2860056079553
aF0.0
aF0.0
aF0.0
aF0.0
aF0.0
aF5581.395348837204
aF5152.956537959348
aF0.0
aF871.6323296355001
aF548.1168271865946
aF2169.1445283938606
aF0.0
aF0.0
assS'subclass_sl'
p41
(dp42
g12
(I0
I100
tp43
sg10
(I100
I171
tp44
ssS'norm'
p45
F1000000.0
sS'cls'
p46
(dp47
S'class'
p48
(S'AD'
p49
S'AD'
p50
S'AD'
p51
S'AD'
p52
S'AD'
p53
S'AD'
p54
S'AD'
p55
S'AD'
p56
S'AD'
p57
S'AD'
p58
S'AD'
p59
S'AD'
p60
S'AD'
p61
S'AD'
p62
S'AD'
p63
S'AD'
p64
S'AD'
p65
S'AD'
p66
S'AD'
p67
S'AD'
p68
S'AD'
p69
S'AD'
p70
S'AD'
p71
S'AD'
p72
S'AD'
p73
S'AD'
p74
S'AD'
p75
S'AD'
p76
S'AD'
p77
S'AD'
p78
S'AD'
p79
S'AD'
p80
S'AD'
p81
S'AD'
p82
S'AD'
p83
S'AD'
p84
S'AD'
p85
S'AD'
p86
S'AD'
p87
S'AD'
p88
S'AD'
p89
S'AD'
p90
S'AD'
p91
S'AD'
p92
S'AD'
p93
S'AD'
p94
S'AD'
p95
S'AD'
p96
S'AD'
p97
S'AD'
p98
S'AD'
p99
S'AD'
p100
S'AD'
p101
S'AD'
p102
S'AD'
p103
S'AD'
p104
S'AD'
p105
S'AD'
p106
S'AD'
p107
S'AD'
p108
S'AD'
p109
S'AD'
p110
S'AD'
p111
S'AD'
p112
S'AD'
p113
S'AD'
p114
S'AD'
p115
S'AD'
p116
S'AD'
p117
S'AD'
p118
S'AD'
p119
S'AD'
p120
S'AD'
p121
S'AD'
p122
S'AD'
p123
S'AD'
p124
S'AD'
p125
S'AD'
p126
S'AD'
p127
S'AD'
p128
S'AD'
p129
S'AD'
p130
S'AD'
p131
S'AD'
p132
S'AD'
p133
S'AD'
p134
S'AD'
p135
S'AD'
p136
S'AD'
p137
S'AD'
p138
S'AD'
p139
S'AD'
p140
S'AD'
p141
S'AD'
p142
S'AD'
p143
S'AD'
p144
S'AD'
p145
S'AD'
p146
S'AD'
p147
g5
g3
g3
g3
g3
g3
g3
g3
g3
g3
g3
g3
g3
g3
g3
g3
g3
g3
g3
g3
g3
g3
g3
g3
g3
g3
g3
g3
g3
g3
g3
g3
g3
g3
g3
g3
g3
g3
g3
g3
g3
g3
g3
g3
g3
g3
g3
g3
g3
g3
g3
g3
g3
g3
g3
g3
g3
g3
g3
g3
g3
g3
g3
g3
g3
g3
g3
g3
g3
g3
g3
g3
tp148
sS'subclass'
p149
(lp150
S'AD_subcl'
p151
aS'AD_subcl'
p152
aS'AD_subcl'
p153
aS'AD_subcl'
p154
aS'AD_subcl'
p155
aS'AD_subcl'
p156
aS'AD_subcl'
p157
aS'AD_subcl'
p158
aS'AD_subcl'
p159
aS'AD_subcl'
p160
aS'AD_subcl'
p161
aS'AD_subcl'
p162
aS'AD_subcl'
p163
aS'AD_subcl'
p164
aS'AD_subcl'
p165
aS'AD_subcl'
p166
aS'AD_subcl'
p167
aS'AD_subcl'
p168
aS'AD_subcl'
p169
aS'AD_subcl'
p170
aS'AD_subcl'
p171
aS'AD_subcl'
p172
aS'AD_subcl'
p173
aS'AD_subcl'
p174
aS'AD_subcl'
p175
aS'AD_subcl'
p176
aS'AD_subcl'
p177
aS'AD_subcl'
p178
aS'AD_subcl'
p179
aS'AD_subcl'
p180
aS'AD_subcl'
p181
aS'AD_subcl'
p182
aS'AD_subcl'
p183
aS'AD_subcl'
p184
aS'AD_subcl'
p185
aS'AD_subcl'
p186
aS'AD_subcl'
p187
aS'AD_subcl'
p188
aS'AD_subcl'
p189
aS'AD_subcl'
p190
aS'AD_subcl'
p191
aS'AD_subcl'
p192
aS'AD_subcl'
p193
aS'AD_subcl'
p194
aS'AD_subcl'
p195
aS'AD_subcl'
p196
aS'AD_subcl'
p197
aS'AD_subcl'
p198
aS'AD_subcl'
p199
aS'AD_subcl'
p200
aS'AD_subcl'
p201
aS'AD_subcl'
p202
aS'AD_subcl'
p203
aS'AD_subcl'
p204
aS'AD_subcl'
p205
aS'AD_subcl'
p206
aS'AD_subcl'
p207
aS'AD_subcl'
p208
aS'AD_subcl'
p209
aS'AD_subcl'
p210
aS'AD_subcl'
p211
aS'AD_subcl'
p212
aS'AD_subcl'
p213
aS'AD_subcl'
p214
aS'AD_subcl'
p215
aS'AD_subcl'
p216
aS'AD_subcl'
p217
aS'AD_subcl'
p218
aS'AD_subcl'
p219
aS'AD_subcl'
p220
aS'AD_subcl'
p221
aS'AD_subcl'
p222
aS'AD_subcl'
p223
aS'AD_subcl'
p224
aS'AD_subcl'
p225
aS'AD_subcl'
p226
aS'AD_subcl'
p227
aS'AD_subcl'
p228
aS'AD_subcl'
p229
aS'AD_subcl'
p230
aS'AD_subcl'
p231
aS'AD_subcl'
p232
aS'AD_subcl'
p233
aS'AD_subcl'
p234
aS'AD_subcl'
p235
aS'AD_subcl'
p236
aS'AD_subcl'
p237
aS'AD_subcl'
p238
aS'AD_subcl'
p239
aS'AD_subcl'
p240
aS'AD_subcl'
p241
aS'AD_subcl'
p242
aS'AD_subcl'
p243
aS'AD_subcl'
p244
aS'AD_subcl'
p245
aS'AD_subcl'
p246
aS'AD_subcl'
p247
aS'AD_subcl'
p248
aS'AD_subcl'
p249
ag12
aS'C_subcl'
p250
aS'C_subcl'
p251
aS'C_subcl'
p252
aS'C_subcl'
p253
aS'C_subcl'
p254
aS'C_subcl'
p255
aS'C_subcl'
p256
aS'C_subcl'
p257
aS'C_subcl'
p258
aS'C_subcl'
p259
aS'C_subcl'
p260
aS'C_subcl'
p261
aS'C_subcl'
p262
aS'C_subcl'
p263
aS'C_subcl'
p264
aS'C_subcl'
p265
aS'C_subcl'
p266
aS'C_subcl'
p267
aS'C_subcl'
p268
aS'C_subcl'
p269
aS'C_subcl'
p270
aS'C_subcl'
p271
aS'C_subcl'
p272
aS'C_subcl'
p273
aS'C_subcl'
p274
aS'C_subcl'
p275
aS'C_subcl'
p276
aS'C_subcl'
p277
aS'C_subcl'
p278
aS'C_subcl'
p279
aS'C_subcl'
p280
aS'C_subcl'
p281
aS'C_subcl'
p282
aS'C_subcl'
p283
aS'C_subcl'
p284
aS'C_subcl'
p285
aS'C_subcl'
p286
aS'C_subcl'
p287
aS'C_subcl'
p288
aS'C_subcl'
p289
aS'C_subcl'
p290
aS'C_subcl'
p291
aS'C_subcl'
p292
aS'C_subcl'
p293
aS'C_subcl'
p294
aS'C_subcl'
p295
aS'C_subcl'
p296
aS'C_subcl'
p297
aS'C_subcl'
p298
aS'C_subcl'
p299
aS'C_subcl'
p300
aS'C_subcl'
p301
aS'C_subcl'
p302
aS'C_subcl'
p303
aS'C_subcl'
p304
aS'C_subcl'
p305
aS'C_subcl'
p306
aS'C_subcl'
p307
aS'C_subcl'
p308
aS'C_subcl'
p309
aS'C_subcl'
p310
aS'C_subcl'
p311
aS'C_subcl'
p312
aS'C_subcl'
p313
aS'C_subcl'
p314
aS'C_subcl'
p315
aS'C_subcl'
p316
aS'C_subcl'
p317
aS'C_subcl'
p318
aS'C_subcl'
p319
ag10
asS'subject'
p320
(S'AD01'
p321
S'AD04'
p322
S'AD05'
p323
S'AD07'
p324
S'AD08'
p325
S'AD09'
p326
S'AD10'
p327
S'AD100'
p328
S'AD101'
p329
S'AD102'
p330
S'AD103'
p331
S'AD104'
p332
S'AD105'
p333
S'AD106'
p334
S'AD107'
p335
S'AD108'
p336
S'AD109'
p337
S'AD11'
p338
S'AD110'
p339
S'AD111'
p340
S'AD112'
p341
S'AD113'
p342
S'AD114'
p343
S'AD116'
p344
S'AD118'
p345
S'AD119'
p346
S'AD12'
p347
S'AD120'
p348
S'AD121'
p349
S'AD122'
p350
S'AD123'
p351
S'AD125'
p352
S'AD126'
p353
S'AD127'
p354
S'AD13'
p355
S'AD14'
p356
S'AD16'
p357
S'AD17'
p358
S'AD18'
p359
S'AD19'
p360
S'AD20'
p361
S'AD21'
p362
S'AD22'
p363
S'AD23'
p364
S'AD24'
p365
S'AD25'
p366
S'AD26'
p367
S'AD27'
p368
S'AD29'
p369
S'AD30'
p370
S'AD31'
p371
S'AD32'
p372
S'AD33'
p373
S'AD34'
p374
S'AD35'
p375
S'AD36'
p376
S'AD37'
p377
S'AD40'
p378
S'AD41'
p379
S'AD47'
p380
S'AD50'
p381
S'AD53'
p382
S'AD54'
p383
S'AD55'
p384
S'AD58'
p385
S'AD59'
p386
S'AD60'
p387
S'AD61'
p388
S'AD62'
p389
S'AD63'
p390
S'AD64'
p391
S'AD65'
p392
S'AD66'
p393
S'AD67'
p394
S'AD68'
p395
S'AD69'
p396
S'AD70'
p397
S'AD71'
p398
S'AD74'
p399
S'AD75'
p400
S'AD76'
p401
S'AD77'
p402
S'AD78'
p403
S'AD79'
p404
S'AD80'
p405
S'AD83'
p406
S'AD84'
p407
S'AD85'
p408
S'AD86'
p409
S'AD88'
p410
S'AD89'
p411
S'AD90'
p412
S'AD91'
p413
S'AD92'
p414
S'AD93'
p415
S'AD94'
p416
S'AD96'
p417
S'AD97'
p418
S'AD98'
p419
S'AD99'
p420
S'C01'
p421
S'C02'
p422
S'C03'
p423
S'C05'
p424
S'C07'
p425
S'C08'
p426
S'C09'
p427
S'C10'
p428
S'C11'
p429
S'C12'
p430
S'C13'
p431
S'C15'
p432
S'C16'
p433
S'C17'
p434
S'C18'
p435
S'C19'
p436
S'C20'
p437
S'C21'
p438
S'C22'
p439
S'C23'
p440
S'C24'
p441
S'C25'
p442
S'C26'
p443
S'C27'
p444
S'C28'
p445
S'C29'
p446
S'C30'
p447
S'C31'
p448
S'C32'
p449
S'C33'
p450
S'C34'
p451
S'C35'
p452
S'C36'
p453
S'C39'
p454
S'C40'
p455
S'C42'
p456
S'C43'
p457
S'C44'
p458
S'C46'
p459
S'C49'
p460
S'C50'
p461
S'C51'
p462
S'C52'
p463
S'C54'
p464
S'C55'
p465
S'C57'
p466
S'C58'
p467
S'C59'
p468
S'C60'
p469
S'C61'
p470
S'C62'
p471
S'C63'
p472
S'C64'
p473
S'C71'
p474
S'C72'
p475
S'C73'
p476
S'C74'
p477
S'C75'
p478
S'C76'
p479
S'C77'
p480
S'C78'
p481
S'C79'
p482
S'C80'
p483
S'C81'
p484
S'C82'
p485
S'C83'
p486
S'C84'
p487
S'C85'
p488
S'C86'
p489
S'C87'
p490
S'C88'
p491
tp492
ss.