(dp0
S'class_sl'
p1
(dp2
S'C'
p3
(I100
I171
tp4
sS'AD'
p5
(I0
I100
tp6
ssS'class_hierarchy'
p7
(dp8
g3
(lp9
S'C_subcl'
p10
asg5
(lp11
S'AD_subcl'
p12
assS'feats'
p13
(dp14
S'd__Bacteria.p__Patescibacteria.c__Saccharimonadia.o__Saccharimonadales'
p15
(lp16
F729.1951508522473
aF285.8572143214461
aF0.0
aF0.0
aF404.9626329934098
aF441.02513843289125
aF155.60569516844294
aF326.6506063451881
aF0.0
aF0.0
aF0.0
aF473.34477249866944
aF195.388823759281
aF4094.9356510112043
aF0.0
aF0.0
aF0.0
aF0.0
aF0.0
aF0.0
aF0.0
aF589.2255892255891
aF321.8242839409678
aF9399.477806788514
aF6664.815329075262
aF1445.0867052023086
aF0.0
aF3302.9758850692633
aF230.78698361412395
aF2470.6410832317265
aF1993.189934390836
aF1177.9041429731901
aF18429.70948436445
aF237.49745538440635
aF138.84068031933398
aF0.0
aF0.0
aF0.0
aF362.7130939426911
aF0.0
aF0.0
aF0.0
aF0.0
aF0.0
aF0.0
aF0.0
aF378.23866859988703
aF0.0
aF146.01204599379406
aF419.04123365739196
aF0.0
aF0.0
aF518.3649289099519
aF0.0
aF0.0
aF0.0
aF136.76772281741555
aF0.0
aF994.5561139028474
aF0.0
aF2289.524421593836
aF0.0
aF0.0
aF0.0
aF328.361009475561
aF2942.5079221367077
aF0.0
aF0.0
aF0.0
aF177.92538995314604
aF0.0
aF0.0
aF0.0
aF0.0
aF0.0
aF0.0
aF0.0
aF0.0
aF0.0
aF253.73197445764808
aF0.0
aF0.0
aF0.0
aF707.1335633874534
aF0.0
aF156.15850087839192
aF0.0
aF1739.44070291245
aF0.0
aF0.0
aF0.0
aF0.0
aF6357.678270083593
aF0.0
aF225.66813888261987
aF0.0
aF0.0
aF1473.9324517813538
aF0.0
aF121.63477132662997
aF0.0
aF0.0
aF360.3315049845859
aF0.0
aF0.0
aF0.0
aF0.0
aF0.0
aF108.55995223362115
aF217.4622159399801
aF515.9716684647501
aF639.8897420752127
aF0.0
aF0.0
aF368.4869924091676
aF132.55567338282108
aF309.56557630791485
aF0.0
aF399.0622038210208
aF0.0
aF0.0
aF0.0
aF0.0
aF346.84372212862917
aF0.0
aF0.0
aF663.8269624384582
aF0.0
aF2238.24919174335
aF0.0
aF0.0
aF0.0
aF0.0
aF0.0
aF0.0
aF0.0
aF0.0
aF0.0
aF0.0
aF1141.7697431018098
aF0.0
aF141.15322182228786
aF345.74886060034623
aF0.0
aF374.79698496647603
aF151.31645314233793
aF1099.9848277954802
aF0.0
aF0.0
aF0.0
aF428.70922796613206
aF0.0
aF0.0
aF5402.659770964173
aF3088.2765812377197
aF9379.689844922455
aF563.1687629059508
aF0.0
aF0.0
aF933.6653032189217
aF0.0
aF0.0
aF464.84601975595587
aF0.0
aF6481.999626935267
aF371.2182144403889
aF0.0
aF0.0
aF7262.978308554722
aF0.0
aF676.4984440535786
asS'd__Bacteria.p__Proteobacteria.c__Gammaproteobacteria.o__Oceanospirillales'
p17
(lp18
F0.0
aF0.0
aF0.0
aF0.0
aF2245.7018738725487
aF1029.058656343414
aF0.0
aF2204.891592830019
aF0.0
aF0.0
aF0.0
aF0.0
aF260.518431679041
aF961.0563262577309
aF357.6857730483773
aF0.0
aF1616.4415194550277
aF1935.4838709677406
aF1750.3139149956255
aF525.3480430785398
aF85.00510030601829
aF0.0
aF229.8744885292629
aF0.0
aF714.0873566866351
aF165.15276630883585
aF0.0
aF769.6254489481779
aF98.90870726319608
aF802.1561958544563
aF955.0701768956069
aF203.08692120227505
aF911.5770282588875
aF67.85641582411617
aF0.0
aF141.94464158978002
aF0.0
aF459.1970611388093
aF145.08523757707704
aF1017.8363706863084
aF0.0
aF122.90296810668002
aF0.0
aF204.750204750205
aF0.0
aF0.0
aF315.19889049990496
aF0.0
aF292.0240919875891
aF293.328863560174
aF640.2048655569787
aF0.0
aF148.10426540284382
aF87.71929824561394
aF0.0
aF178.85431038888
aF0.0
aF0.0
aF261.7252931323285
aF0.0
aF682.8406169665816
aF21126.967779902894
aF0.0
aF0.0
aF281.452293836195
aF452.6935264825707
aF473.63435427849714
aF0.0
aF0.0
aF177.92538995314604
aF0.0
aF0.0
aF0.0
aF89.50548221078542
aF132.5117604187371
aF0.0
aF0.0
aF0.0
aF0.0
aF169.15464963843203
aF521.065952061933
aF0.0
aF674.7069241798085
aF0.0
aF324.96840584943135
aF156.15850087839192
aF125.69130216189012
aF267.60626198653
aF87.73084177742693
aF0.0
aF710.5459985041141
aF0.0
aF1098.8579726070373
aF0.0
aF225.66813888261987
aF84.03008276963148
aF421.0171775008415
aF210.561778825908
aF122.96719849980045
aF0.0
aF208.19236974964915
aF0.0
aF200.1841694358809
aF0.0
aF0.0
aF0.0
aF0.0
aF146.14185502727995
aF162.83992835043222
aF0.0
aF0.0
aF0.0
aF0.0
aF0.0
aF0.0
aF220.92612230470118
aF0.0
aF0.0
aF99.76555095525516
aF0.0
aF0.0
aF0.0
aF0.0
aF0.0
aF0.0
aF0.0
aF0.0
aF0.0
aF0.0
aF417.079401491059
aF0.0
aF0.0
aF0.0
aF0.0
aF0.0
aF121.28562765312292
aF0.0
aF0.0
aF0.0
aF0.0
aF0.0
aF0.0
aF471.4757190004713
aF0.0
aF0.0
aF0.0
aF0.0
aF0.0
aF0.0
aF0.0
aF1250.4019149012202
aF0.0
aF0.0
aF230.8828961950501
aF2446.55677214936
aF312.65632816408186
aF140.79219072648795
aF305.8883507519759
aF0.0
aF0.0
aF204.05664612496398
aF221.520739879271
aF0.0
aF0.0
aF0.0
aF0.0
aF0.0
aF548.1168271865953
aF536.1930294906172
aF376.43515904385515
aF541.1987552428627
asS'd__Bacteria.p__Firmicutes.c__Clostridia.o__Clostridia_vadinBB60_group'
p19
(lp20
F0.0
aF0.0
aF0.0
aF0.0
aF0.0
aF0.0
aF0.0
aF0.0
aF0.0
aF0.0
aF0.0
aF0.0
aF0.0
aF0.0
aF0.0
aF0.0
aF0.0
aF0.0
aF0.0
aF0.0
aF0.0
aF0.0
aF0.0
aF0.0
aF0.0
aF0.0
aF0.0
aF0.0
aF0.0
aF0.0
aF0.0
aF0.0
aF0.0
aF271.4256632964648
aF0.0
aF0.0
aF0.0
aF0.0
aF0.0
aF0.0
aF0.0
aF0.0
aF0.0
aF0.0
aF0.0
aF0.0
aF0.0
aF0.0
aF0.0
aF0.0
aF0.0
aF0.0
aF0.0
aF0.0
aF0.0
aF0.0
aF0.0
aF0.0
aF0.0
aF0.0
aF0.0
aF0.0
aF0.0
aF0.0
aF0.0
aF0.0
aF0.0
aF0.0
aF0.0
aF0.0
aF0.0
aF1040.4280618311507
aF0.0
aF0.0
aF0.0
aF0.0
aF0.0
aF0.0
aF0.0
aF0.0
aF0.0
aF0.0
aF0.0
aF0.0
aF216.6456038996209
aF0.0
aF0.0
aF0.0
aF0.0
aF0.0
aF0.0
aF0.0
aF0.0
aF0.0
aF0.0
aF0.0
aF0.0
aF0.0
aF0.0
aF0.0
aF0.0
aF0.0
aF0.0
aF0.0
aF0.0
aF0.0
aF0.0
aF0.0
aF0.0
aF0.0
aF0.0
aF0.0
aF0.0
aF0.0
aF0.0
aF0.0
aF0.0
aF0.0
aF0.0
aF0.0
aF0.0
aF0.0
aF0.0
aF0.0
aF0.0
aF0.0
aF0.0
aF0.0
aF0.0
aF0.0
aF0.0
aF0.0
aF0.0
aF0.0
aF0.0
aF0.0
aF291.09962884797295
aF0.0
aF0.0
aF0.0
aF0.0
aF0.0
aF0.0
aF0.0
aF0.0
aF0.0
aF0.0
aF0.0
aF0.0
aF0.0
aF0.0
aF0.0
aF0.0
aF0.0
aF0.0
aF0.0
aF0.0
aF764.7208768799388
aF0.0
aF0.0
aF0.0
aF0.0
aF0.0
aF0.0
aF0.0
aF0.0
aF0.0
aF0.0
aF0.0
aF0.0
aF0.0
asS'd__Bacteria.p__Proteobacteria.c__Gammaproteobacteria.o__Vibrionales'
p21
(lp22
F0.0
aF0.0
aF0.0
aF0.0
aF0.0
aF0.0
aF0.0
aF1674.0843575190872
aF0.0
aF0.0
aF0.0
aF0.0
aF0.0
aF0.0
aF0.0
aF0.0
aF384.86702844167337
aF0.0
aF0.0
aF0.0
aF255.01530091805478
aF0.0
aF0.0
aF0.0
aF0.0
aF0.0
aF0.0
aF0.0
aF0.0
aF609.6387088493872
aF207.62395149904506
aF0.0
aF277.4364868614009
aF0.0
aF0.0
aF0.0
aF0.0
aF0.0
aF0.0
aF0.0
aF0.0
aF0.0
aF0.0
aF0.0
aF0.0
aF0.0
aF0.0
aF0.0
aF0.0
aF0.0
aF0.0
aF0.0
aF0.0
aF0.0
aF0.0
aF0.0
aF0.0
aF0.0
aF0.0
aF0.0
aF0.0
aF205.97322348094696
aF0.0
aF0.0
aF0.0
aF0.0
aF0.0
aF0.0
aF0.0
aF0.0
aF0.0
aF0.0
aF0.0
aF0.0
aF0.0
aF0.0
aF0.0
aF0.0
aF0.0
aF0.0
aF0.0
aF0.0
aF0.0
aF0.0
aF0.0
aF0.0
aF0.0
aF0.0
aF0.0
aF0.0
aF0.0
aF0.0
aF0.0
aF0.0
aF0.0
aF0.0
aF0.0
aF0.0
aF0.0
aF0.0
aF0.0
aF0.0
aF0.0
aF0.0
aF0.0
aF0.0
aF0.0
aF0.0
aF0.0
aF0.0
aF0.0
aF0.0
aF0.0
aF0.0
aF0.0
aF0.0
aF0.0
aF0.0
aF0.0
aF0.0
aF0.0
aF0.0
aF0.0
aF0.0
aF0.0
aF0.0
aF0.0
aF0.0
aF0.0
aF0.0
aF0.0
aF0.0
aF0.0
aF0.0
aF0.0
aF0.0
aF0.0
aF0.0
aF0.0
aF0.0
aF0.0
aF0.0
aF0.0
aF0.0
aF0.0
aF0.0
aF0.0
aF0.0
aF0.0
aF0.0
aF0.0
aF0.0
aF0.0
aF0.0
aF0.0
aF0.0
aF0.0
aF0.0
aF0.0
aF0.0
aF0.0
aF0.0
aF0.0
aF0.0
aF0.0
aF0.0
aF0.0
aF0.0
aF0.0
aF0.0
aF0.0
asS'd__Bacteria.p__Firmicutes.c__Clostridia.o__Lachnospirales'
p23
(lp24
F180658.09862364404
aF73036.51825912963
aF39206.47350561211
aF100985.34241874602
aF33354.19504472998
aF183417.45479492383
aF161596.5144324282
aF92850.43485361969
aF211198.81878584818
aF44089.9481068614
aF47602.52584831029
aF230282.23182060223
aF302592.158395206
aF202490.3894367375
aF115040.6867566841
aF55594.98462266382
aF42912.673671246586
aF74884.79262672813
aF0.0
aF135408.45810349396
aF140768.44610676644
aF85311.44781144781
aF119902.53321686394
aF121338.71350581506
aF236521.60114253973
aF173245.25185796883
aF239333.78964179783
aF77475.62852744988
aF122514.91873001197
aF69274.2090739909
aF57179.636242836976
aF125995.12591389104
aF262653.08549007215
aF39729.93146501999
aF152169.38562998996
aF159119.94322214305
aF298727.563832477
aF43558.12122802412
aF150163.22089227405
aF332977.8984102365
aF209273.0902906159
aF14809.807656854902
aF74471.25409591901
aF125989.62598962599
aF106615.925058548
aF29715.8507360493
aF51629.5782638845
aF7821.758710594935
aF158277.05785727306
aF256704.65973851804
aF124999.99999999972
aF0.0
aF181612.85545023717
aF161929.8245614039
aF343854.18981996016
aF18575.2976646737
aF88397.5381809893
aF140913.45339581106
aF140860.5527638189
aF7765.2670697210115
aF96360.86118251932
aF244813.88848021193
aF106474.69609449104
aF13538.532747049301
aF225349.469931513
aF176731.5527387959
aF24628.98642248181
aF417572.91151754826
aF54913.67570179681
aF306506.13842595305
aF195691.10544310004
aF77041.22076892592
aF51487.414187643044
aF4475.274110539271
aF0.0
aF261417.697431018
aF48268.06332579449
aF44752.26425146512
aF34726.44732531467
aF27360.764579016406
aF86422.5100491291
aF161414.634146341
aF57406.31413229876
aF19205.74758160321
aF4657.880483841849
aF120749.56080421594
aF393916.54097536433
aF467998.751170777
aF92161.24928718693
aF147130.56284228497
aF261705.31039641006
aF71011.44592384958
aF67775.98995329853
aF2128.414331323164
aF36203.61713788324
aF44577.95890928949
aF39112.49578982818
aF8843.594710688114
aF19244.36656521874
aF283.8144664288029
aF288606.6725654502
aF29417.766290300602
aF257797.1733995279
aF82089.55223880592
aF153718.39822845504
aF444795.84611753566
aF107407.08878183097
aF203575.60405300092
aF160560.16935352518
aF106067.1958247253
aF304094.9387869981
aF372317.3853120694
aF111868.17770979604
aF143380.412851156
aF175399.80838676385
aF424222.34004948736
aF214219.3788050769
aF52796.1097603334
aF133735.72105551994
aF59928.92850689627
aF197975.1158819221
aF154760.66867407304
aF127425.73346822389
aF372163.31384401926
aF125884.01697312598
aF81165.50594018848
aF145156.82911987606
aF402050.4113882721
aF150087.043024123
aF212449.82013450802
aF75827.22086389571
aF102609.10815939298
aF562323.4553952029
aF115932.80109712498
aF1624.2203742203696
aF243298.96907216482
aF219561.89505858396
aF143124.92441649505
aF151228.17401598088
aF11560.418648905797
aF292578.32376244804
aF220128.44943185837
aF107276.44192990707
aF104329.36950665295
aF332195.06100862
aF202108.34258044988
aF101502.04824761002
aF129032.25806451622
aF28494.664345720095
aF142821.794427674
aF76024.4364259941
aF297941.7268110132
aF616990.4137235122
aF50101.58847432583
aF294268.63995508
aF412081.0405202598
aF27970.715224328887
aF190058.62860056094
aF332995.951417004
aF8002.8454561621875
aF12120.964779822898
aF133300.105222351
aF199477.04822777497
aF232868.21705426404
aF43695.20611826148
aF4083.4003588442692
aF284310.6180665612
aF279852.79148069816
aF241530.5873750911
aF150338.79164313906
aF285752.9427682318
asS'd__Bacteria.p__Firmicutes.c__Negativicutes.o__Veillonellales_Selenomonadales'
p25
(lp26
F7565.399690092063
aF7432.2875723576135
aF417.645523362046
aF0.0
aF2024.813164967049
aF81295.63385112958
aF7313.467672916826
aF0.0
aF21409.50650235672
aF8879.492600422831
aF198320.72722226093
aF0.0
aF0.0
aF0.0
aF6170.079585084505
aF1372.1315353678704
aF1154.6010853250239
aF78479.26267281114
aF0.0
aF569.127046668418
aF432378.44270656235
aF210.43771043771005
aF8275.481587053466
aF92428.19843342045
aF8450.033720791846
aF1321.2221304706886
aF988.6683397977024
aF0.0
aF0.0
aF8952.063145735734
aF11211.693380948447
aF324.9390739236391
aF9710.277040149022
aF11365.949650539455
aF3679.278028462339
aF32718.23988644431
aF3370.691834499033
aF6691.1571765940735
aF0.0
aF3683.598293912364
aF2144.494564815499
aF614.514840533399
aF1966.0411081322604
aF32487.0324870325
aF0.0
aF0.0
aF0.0
aF651.8132258829114
aF2080.671655411571
aF22376.8018773047
aF0.0
aF7149.240393208218
aF21882.405213270096
aF1271.929824561399
aF2167.1482551678205
aF9913.63891869794
aF775.017095965352
aF35792.92045390391
aF30307.78894472362
aF18359.310000554702
aF78205.33419023136
aF88.27423863469178
aF5603.931373394263
aF18398.5188613747
aF4174.87569190356
aF3395.201448619278
aF0.0
aF0.0
aF0.0
aF11446.533420319103
aF0.0
aF644.0745144669052
aF67765.75826919086
aF1521.5931975833503
aF40813.62220897108
aF618.458610846813
aF0.0
aF0.0
aF842.4205550615425
aF13024.908022159303
aF79611.43367574812
aF118439.024390244
aF2473.9253886592983
aF3931.6626124342424
aF0.0
aF0.0
aF0.0
aF133.803130993265
aF263.1925253322811
aF11643.425836439797
aF0.0
aF1501.6518169987032
aF549.4289863035207
aF10180.915218162421
aF3642.9285276765854
aF5756.060669719759
aF294.7120242505886
aF12212.583171902595
aF5994.65092686526
aF2148.8809601037897
aF676.6252016863584
aF306.080805332608
aF1761.6206910357494
aF19533.20645096658
aF1153.3493264439903
aF0.0
aF2709.9105299380594
aF25087.68511301639
aF111653.91087227914
aF271.82776992497514
aF54411.55776537362
aF9056.90096475685
aF0.0
aF0.0
aF10649.27408062499
aF168655.00176740912
aF1341.4508306676294
aF284.189586030503
aF2992.9665286576487
aF0.0
aF121.98097096852908
aF30630.25646350331
aF122781.20114043988
aF16103.45852740071
aF55103.72465818009
aF6349.856616140929
aF39221.10969740551
aF33890.55765965781
aF32330.2661029595
aF199885.30316459
aF0.0
aF42884.25047438329
aF2208.41251091367
aF0.0
aF1754.1580041579996
aF99757.42874469374
aF13245.033112582798
aF8828.153343814252
aF7339.449541284394
aF1094.1960038058999
aF5742.53107508905
aF24842.96704072264
aF38849.59924563883
aF2966.067103866769
aF73418.5649439887
aF20175.52708564509
aF1024.1238051888902
aF58514.62865716433
aF756.8303943086348
aF78438.1649923294
aF414526.09767425206
aF1443.4643143544508
aF59661.957618567125
aF0.0
aF44559.4192435728
aF7503.751875937966
aF703.9609536324386
aF662.7580932959469
aF695.8502024291499
aF0.0
aF244.86797534995696
aF18330.8412250097
aF0.0
aF1674.4186046511602
aF233.16545420630487
aF3093.4851203365693
aF0.0
aF6812.309137890533
aF1364.8549841579306
aF1929.2301900997606
aF947.0978216750093
asS'd__Bacteria.p__Fusobacteriota.c__Fusobacteriia.o__Fusobacteriales'
p27
(lp28
F0.0
aF0.0
aF0.0
aF0.0
aF257.70349372307885
aF0.0
aF0.0
aF0.0
aF11357.82838321311
aF0.0
aF0.0
aF0.0
aF0.0
aF0.0
aF0.0
aF0.0
aF0.0
aF0.0
aF0.0
aF0.0
aF127.50765045902787
aF0.0
aF0.0
aF0.0
aF0.0
aF0.0
aF0.0
aF0.0
aF0.0
aF0.0
aF0.0
aF0.0
aF0.0
aF169.64103956029038
aF0.0
aF0.0
aF0.0
aF0.0
aF0.0
aF0.0
aF0.0
aF0.0
aF0.0
aF0.0
aF0.0
aF0.0
aF0.0
aF0.0
aF0.0
aF0.0
aF0.0
aF0.0
aF481.3388625592417
aF0.0
aF0.0
aF0.0
aF0.0
aF0.0
aF0.0
aF0.0
aF0.0
aF0.0
aF0.0
aF154.285273470647
aF249366.73233886898
aF0.0
aF0.0
aF0.0
aF0.0
aF0.0
aF0.0
aF0.0
aF0.0
aF0.0
aF0.0
aF0.0
aF0.0
aF0.0
aF0.0
aF5412.9487884298205
aF0.0
aF0.0
aF0.0
aF0.0
aF144.43040259974728
aF0.0
aF0.0
aF0.0
aF0.0
aF0.0
aF0.0
aF0.0
aF0.0
aF461.15643845335234
aF0.0
aF0.0
aF0.0
aF0.0
aF0.0
aF0.0
aF0.0
aF0.0
aF0.0
aF0.0
aF0.0
aF0.0
aF0.0
aF243.5697583787999
aF0.0
aF0.0
aF140.71954594493207
aF0.0
aF0.0
aF0.0
aF110.54609772274989
aF0.0
aF0.0
aF0.0
aF0.0
aF0.0
aF0.0
aF0.0
aF0.0
aF0.0
aF0.0
aF0.0
aF0.0
aF0.0
aF1803.03407112659
aF0.0
aF0.0
aF2988.614800759009
aF0.0
aF0.0
aF0.0
aF0.0
aF0.0
aF0.0
aF947.0257472625034
aF0.0
aF0.0
aF0.0
aF0.0
aF0.0
aF0.0
aF0.0
aF0.0
aF1768.2992176615567
aF0.0
aF0.0
aF0.0
aF0.0
aF15136.226034308806
aF0.0
aF0.0
aF110805.40270135095
aF0.0
aF0.0
aF0.0
aF0.0
aF0.0
aF0.0
aF0.0
aF0.0
aF279.7985450475659
aF0.0
aF237.71790808240917
aF0.0
aF0.0
aF0.0
aF0.0
asS'd__Bacteria.p__Firmicutes.c__Clostridia.o__Christensenellales'
p29
(lp30
F36824.35511803851
aF0.0
aF0.0
aF3676.6508162164805
aF0.0
aF1519.0865879355085
aF40690.88928654783
aF42913.723408599115
aF0.0
aF422.832980972516
aF277.5657483866489
aF4674.279628424354
aF651.296079197603
aF0.0
aF3129.7505141733027
aF615.0934468890471
aF3271.3697417542216
aF4884.792626728112
aF114.15090749971495
aF2889.4142369319693
aF0.0
aF5681.818181818182
aF11585.674221874893
aF379.7768810823642
aF49470.38521045741
aF0.0
aF0.0
aF13660.851718830138
aF0.0
aF0.0
aF581.347064197326
aF0.0
aF0.0
aF26599.715003053585
aF0.0
aF0.0
aF1432.5440296620889
aF655.9958016268704
aF652.8835690968442
aF18030.244280728974
aF517.6366190933958
aF0.0
aF42657.13434614241
aF2388.7523887523903
aF0.0
aF0.0
aF12544.9158418962
aF0.0
aF1131.5933564519105
aF2807.5762655045296
aF3801.216389244556
aF0.0
aF333.2345971563979
aF8245.614035087714
aF2833.963102911761
aF0.0
aF11807.613403236834
aF10895.952125557505
aF18530.150753768856
aF0.0
aF3695.372750642675
aF2000.8827423863497
aF14052.935597896405
aF964.2829591915452
aF1547.98761609907
aF1222.272521502939
aF53015.47205557312
aF288.3506343713962
aF4349.163115582301
aF3499.1993357452106
aF7814.61985130515
aF219431.2326595322
aF312.04493447056427
aF0.0
aF0.0
aF18553.7583254044
aF23985.239852398547
aF0.0
aF0.0
aF3890.5569416839307
aF9304.749143963081
aF2048.78048780488
aF175564.3642292879
aF141.42671267749108
aF40548.83552987907
aF8198.321296115557
aF2849.0028490028526
aF0.0
aF175.46168355485406
aF5798.702195222969
aF3477.935676888561
aF86828.8450629026
aF16286.644951140084
aF3086.200780418589
aF322.3830555466007
aF0.0
aF0.0
aF0.0
aF0.0
aF0.0
aF26648.623327955018
aF0.0
aF32149.57761140248
aF0.0
aF1199.4832995017503
aF4484.304932735427
aF0.0
aF5943.102104442707
aF2442.5989252564727
aF29955.420245732275
aF703.5977297246592
aF98.44457570387881
aF14531.043593130806
aF0.0
aF0.0
aF3004.5952633439424
aF9699.721390981316
aF0.0
aF4838.629221329878
aF1746.6722881406993
aF1280.8001951695508
aF986.3980895026482
aF0.0
aF0.0
aF5598.774163130599
aF0.0
aF9182.939647065332
aF28340.080971659903
aF0.0
aF834.158802982118
aF0.0
aF616.6982922201139
aF975.8101792409218
aF832.6394671107407
aF129.93762993762996
aF11825.348696179492
aF7131.940906775339
aF7376.950054420122
aF473.5128736312517
aF0.0
aF8286.69041215381
aF12703.789964005908
aF0.0
aF0.0
aF0.0
aF100.87763542822596
aF113.79153390987702
aF0.0
aF0.0
aF2771.3168703914503
aF285.806151977421
aF588.0780539962583
aF0.0
aF0.0
aF6978.70292383588
aF28076.538269134588
aF0.0
aF22890.644914606197
aF0.0
aF0.0
aF0.0
aF0.0
aF0.0
aF14325.581395348801
aF0.0
aF0.0
aF4595.879556259913
aF22864.301934069408
aF389.95856690226714
aF1976.2845849802407
aF33689.62251386818
asS'd__Bacteria.p__Verrucomicrobiota.c__Lentisphaeria.o__Victivallales'
p31
(lp32
F0.0
aF0.0
aF0.0
aF0.0
aF0.0
aF0.0
aF0.0
aF0.0
aF0.0
aF0.0
aF0.0
aF0.0
aF0.0
aF0.0
aF0.0
aF0.0
aF0.0
aF0.0
aF0.0
aF0.0
aF0.0
aF0.0
aF0.0
aF0.0
aF158.68607926369623
aF0.0
aF0.0
aF0.0
aF0.0
aF0.0
aF0.0
aF0.0
aF0.0
aF0.0
aF0.0
aF0.0
aF0.0
aF0.0
aF0.0
aF0.0
aF0.0
aF0.0
aF0.0
aF0.0
aF0.0
aF0.0
aF0.0
aF0.0
aF0.0
aF0.0
aF0.0
aF0.0
aF0.0
aF0.0
aF0.0
aF0.0
aF0.0
aF0.0
aF0.0
aF0.0
aF0.0
aF0.0
aF0.0
aF0.0
aF0.0
aF0.0
aF0.0
aF0.0
aF0.0
aF0.0
aF0.0
aF3666.2703131193102
aF0.0
aF0.0
aF0.0
aF0.0
aF0.0
aF0.0
aF0.0
aF0.0
aF0.0
aF0.0
aF0.0
aF0.0
aF0.0
aF0.0
aF0.0
aF0.0
aF0.0
aF0.0
aF0.0
aF0.0
aF0.0
aF0.0
aF0.0
aF0.0
aF0.0
aF0.0
aF0.0
aF0.0
aF0.0
aF0.0
aF0.0
aF0.0
aF0.0
aF0.0
aF0.0
aF0.0
aF0.0
aF0.0
aF0.0
aF0.0
aF0.0
aF0.0
aF0.0
aF0.0
aF0.0
aF0.0
aF0.0
aF0.0
aF0.0
aF0.0
aF0.0
aF0.0
aF0.0
aF0.0
aF0.0
aF0.0
aF0.0
aF0.0
aF0.0
aF0.0
aF0.0
aF0.0
aF0.0
aF0.0
aF0.0
aF0.0
aF0.0
aF0.0
aF0.0
aF0.0
aF0.0
aF0.0
aF0.0
aF0.0
aF0.0
aF0.0
aF0.0
aF0.0
aF0.0
aF0.0
aF0.0
aF0.0
aF0.0
aF0.0
aF0.0
aF0.0
aF0.0
aF0.0
aF0.0
aF0.0
aF0.0
aF0.0
aF0.0
aF0.0
aF0.0
aF0.0
aF0.0
aF0.0
aF0.0
asS'd__Bacteria.p__Firmicutes.c__Clostridia'
p33
(lp34
F641600.5833561204
aF205245.4798827982
aF585643.4351344297
aF686406.1963821757
aF946544.9324448698
aF612044.8865585341
aF816074.0683109001
aF356702.4621289457
aF299335.5670395821
aF87987.69940418986
aF91596.6969675942
aF672504.5855274835
aF369610.5249446395
aF224343.97459468502
aF377492.6227309307
aF345398.6278684643
aF153677.40445676024
aF249631.33640553005
aF228.3018149994299
aF293844.6720952636
aF172815.36892213533
aF258922.5589225589
aF528941.1981058348
aF180061.7137431756
aF572539.3739834175
aF211189.09991742377
aF663472.5074150122
aF292489.7383273471
aF203092.545580429
aF194988.1280883014
aF546134.0420230874
aF877051.177904143
aF330743.9261226272
aF249372.32815362702
aF605900.7289135715
aF514194.46415897785
aF755456.3074070956
aF199160.32537391744
aF189408.77765687325
aF650252.0356727414
aF300820.8237817051
aF832729.0604068084
aF224486.14834673834
aF887319.1373191372
aF213934.42622950845
aF61143.44402601846
aF223791.2122549332
aF8295.804693055234
aF320824.96805986477
aF512236.004022796
aF215869.07810499342
aF14670.837056896036
aF698274.5853080571
aF907631.5789473684
aF857968.4374305399
aF19903.929684705377
aF396170.50376111234
aF684525.4897532886
aF872225.7118927973
aF8486.327583337961
aF337082.26221079694
aF814241.5771663968
aF336580.73971894133
aF327470.4929414484
aF277089.7832817335
aF855907.6505205977
aF200694.66371960848
aF435780.19443071354
aF151342.09023415198
aF838977.5220924024
aF908775.1668746946
aF470521.2049147839
aF133711.25442063663
aF22958.156187066455
aF6956.867421983703
aF702473.8344433869
aF169325.08034757763
aF49591.54679453031
aF67206.43983713193
aF105594.79003679115
aF600602.9477445291
aF223951.21951219466
aF463945.3487391416
aF69610.22797986085
aF85899.98194619975
aF697481.9441733358
aF853360.1474777943
aF716694.1706435926
aF274597.5347633457
aF254268.48911592847
aF663201.1967090502
aF327326.7260653386
aF207291.7075467996
aF13870.166725789288
aF126019.53641316616
aF93273.39187429092
aF159270.79824856875
aF32342.28922765937
aF39902.855913185114
aF1054.1680181641257
aF819601.3116119291
aF313902.8703577746
aF902310.1253152902
aF521837.1231092856
aF926370.1789998156
aF848949.7285815434
aF738816.2422573984
aF774162.1200311767
aF654942.1918254357
aF659780.3631619008
aF734602.936347859
aF690588.6985627093
aF650768.2680942777
aF206922.24119199102
aF269990.41933819716
aF602686.4616472248
aF560674.8529563511
aF154599.1348005936
aF748540.9288172795
aF394326.3265674879
aF970297.6335691633
aF693126.3627868339
aF257058.76942886045
aF878158.7553265285
aF730492.6921263554
aF340587.87382220384
aF845770.8690601316
aF928953.8983936267
aF681733.3996518275
aF516135.75934518536
aF773789.7310513449
aF595967.7419354836
aF945714.1389759129
aF409854.53298721655
aF14228.170478170478
aF618556.7010309275
aF474346.8452077726
aF747611.5612528721
aF640130.2160402484
aF67174.11988582305
aF684887.6935378354
aF827722.4927658971
aF131856.04274713164
aF863261.585349261
aF608003.9978345064
aF848834.8633108039
aF632263.6929145806
aF176079.73421926924
aF64179.21743737223
aF726233.4834463309
aF170304.74080954597
aF874525.5279337076
aF764001.0090817359
aF478204.65459918714
aF632094.0119520321
aF678589.2946473231
aF356204.24253801367
aF899311.751210808
aF820027.834008097
aF710786.0572648053
aF157817.41011304772
aF382621.69795647025
aF802149.9128413713
aF820217.0542635665
aF70835.66498787534
aF5939.491431046209
aF787004.7543581617
aF921227.781692898
aF400584.93785035325
aF800583.474496518
aF808618.5901772428
asS'd__Bacteria.p__Firmicutes.c__Negativicutes'
p35
(lp36
F14219.305441618813
aF7432.2875723576135
aF1305.1422605063938
aF9657.33614392862
aF2245.701873872545
aF81295.63385112958
aF9414.144557690805
aF1551.5903801396423
aF21409.50650235672
aF8879.492600422831
aF198320.72722226093
aF295.84048281166827
aF27028.7872867005
aF250.7103459802776
aF6661.897523026024
aF1372.1315353678704
aF2386.1755763383803
aF218986.17511520718
aF0.0
aF16592.242360563916
aF438541.3124787487
aF5008.417508417512
aF8275.481587053466
aF97507.71421789705
aF8767.40587931924
aF1321.2221304706886
aF10114.837630238037
aF0.0
aF626.4218126669078
aF8952.063145735734
aF11211.693380948447
aF324.9390739236391
aF9710.277040149022
aF11365.949650539455
aF19021.173203748735
aF32718.23988644431
aF3792.0283138114123
aF6691.1571765940735
aF0.0
aF4313.687475765795
aF2144.494564815499
aF1106.1267129601179
aF11200.476616026213
aF32964.78296478297
aF0.0
aF0.0
aF9897.24516169703
aF651.8132258829114
aF16827.888300784776
aF22586.322494133397
aF46734.9551856594
aF7149.240393208218
aF21882.405213270096
aF1271.929824561399
aF2167.1482551678205
aF9913.63891869794
aF1048.5525416001822
aF35792.92045390391
aF30517.16917922948
aF18359.310000554702
aF79089.01028277633
aF88.27423863469178
aF6293.646003965863
aF18398.5188613747
aF4174.87569190356
aF3847.8949751018486
aF473.63435427849714
aF2965.892239248642
aF1669.3757413346202
aF13047.861929897423
aF10256.688554838001
aF13575.108997225494
aF67765.75826919086
aF1521.5931975833503
aF40813.62220897108
aF2140.818268315893
aF1249.8512081894999
aF0.0
aF21200.917302382128
aF29475.197699496806
aF80169.71862438589
aF123707.31707317082
aF5397.6553934384665
aF3931.6626124342424
aF8015.887344285973
aF585.5943782939678
aF377.07390648567133
aF20204.272779983068
aF263.1925253322811
aF106033.41156979148
aF3066.5669409124907
aF6874.228317816269
aF26058.63192182414
aF10287.33593472858
aF3642.9285276765854
aF5756.060669719759
aF294.7120242505886
aF12212.583171902595
aF10544.437271357863
aF2148.8809601037897
aF676.6252016863584
aF306.080805332608
aF3202.946710974089
aF19533.20645096658
aF1153.3493264439903
aF2596.1765400047184
aF2967.997247075017
aF33076.77318784101
aF112359.55056179767
aF271.82776992497514
aF58304.798536516726
aF15554.242961212858
aF5423.068900785652
aF434.58016451963397
aF10649.27408062499
aF168920.11311417478
aF2218.553296873387
aF284.189586030503
aF2992.9665286576487
aF0.0
aF4269.333983898512
aF33070.29384279932
aF122781.20114043988
aF18035.87355068879
aF58404.05469118339
aF6349.856616140929
aF39663.66100569782
aF33890.55765965781
aF54153.195722457094
aF199989.57301496278
aF0.0
aF43263.75711574952
aF2208.41251091367
aF636.7242983788019
aF1754.1580041579996
aF100363.85688295934
aF14773.306164034657
aF10339.823436933133
aF32909.14471737197
aF1094.1960038058999
aF21007.48709747765
aF30065.636248147304
aF38849.59924563883
aF32055.294021606056
aF73418.5649439887
aF20175.52708564509
aF1024.1238051888902
aF58514.62865716433
aF3405.736774388854
aF82644.62809917357
aF414526.09767425206
aF2138.465650895483
aF59661.957618567125
aF0.0
aF45201.13905266116
aF12193.596798399194
aF703.9609536324386
aF1682.3859291358665
aF885.627530364373
aF0.0
aF244.86797534995696
aF32508.1685772831
aF0.0
aF2914.72868217054
aF1678.7912702853941
aF3093.4851203365693
aF1822.5039619651313
aF9552.893273823505
aF2047.282476236898
aF1929.2301900997606
aF1555.94642132323
asS'd__Bacteria.p__Proteobacteria.c__Gammaproteobacteria.o__Xanthomonadales'
p37
(lp38
F0.0
aF0.0
aF0.0
aF0.0
aF1178.0731141626495
aF588.0335179105207
aF0.0
aF734.9638642766726
aF0.0
aF0.0
aF0.0
aF0.0
aF130.259215839521
aF125.3551729901383
aF268.2643297862832
aF0.0
aF962.1675711041834
aF737.3271889400922
aF494.6539324987634
aF306.45302512914793
aF85.00510030601829
aF0.0
aF0.0
aF0.0
aF714.0873566866351
aF82.57638315441773
aF152.1028215073389
aF320.6772703950741
aF0.0
aF224.60373483924798
aF664.3966447969434
aF0.0
aF396.33783837342946
aF0.0
aF0.0
aF0.0
aF0.0
aF0.0
aF0.0
aF290.81039162466055
aF0.0
aF0.0
aF0.0
aF0.0
aF0.0
aF0.0
aF0.0
aF0.0
aF0.0
aF0.0
aF400.1280409731117
aF0.0
aF0.0
aF0.0
aF0.0
aF0.0
aF0.0
aF0.0
aF157.03517587939749
aF0.0
aF321.3367609254505
aF10681.182874797698
aF0.0
aF0.0
aF0.0
aF0.0
aF157.87811809283204
aF82.38589553468455
aF0.0
aF0.0
aF0.0
aF0.0
aF0.0
aF0.0
aF0.0
aF0.0
aF0.0
aF0.0
aF0.0
aF169.15464963843203
aF223.31397945511355
aF0.0
aF168.67673104495188
aF0.0
aF0.0
aF0.0
aF0.0
aF223.00521832210902
aF0.0
aF138.06433798149897
aF186.98578908003003
aF0.0
aF353.20434833797736
aF0.0
aF96.7149166639801
aF0.0
aF84.20343550016831
aF0.0
aF122.96719849980045
aF0.0
aF0.0
aF0.0
aF120.11050166152894
aF0.0
aF0.0
aF0.0
aF0.0
aF0.0
aF0.0
aF0.0
aF0.0
aF0.0
aF0.0
aF0.0
aF0.0
aF0.0
aF0.0
aF0.0
aF0.0
aF0.0
aF0.0
aF0.0
aF0.0
aF148.64730948369808
aF0.0
aF0.0
aF0.0
aF0.0
aF0.0
aF260.67462593191203
aF65.19967400163002
aF0.0
aF0.0
aF0.0
aF0.0
aF0.0
aF0.0
aF0.0
aF0.0
aF0.0
aF0.0
aF0.0
aF282.88543140028315
aF0.0
aF0.0
aF0.0
aF0.0
aF0.0
aF0.0
aF0.0
aF535.886534957665
aF0.0
aF0.0
aF230.8828961950501
aF882.364737496491
aF0.0
aF0.0
aF0.0
aF0.0
aF0.0
aF0.0
aF0.0
aF0.0
aF0.0
aF0.0
aF0.0
aF0.0
aF156.60480776759806
aF341.2137460394831
aF0.0
aF0.0
asS'd__Bacteria.p__Desulfobacterota.c__Desulfovibrionia.o__Desulfovibrionales'
p39
(lp40
F455.74696928265416
aF428.7858214821702
aF0.0
aF490.22010882886406
aF552.2217722637407
aF0.0
aF14315.723955496758
aF694.1325384835249
aF0.0
aF3805.49682875264
aF0.0
aF1065.025738122001
aF0.0
aF0.0
aF447.10721631047136
aF1182.8720132481703
aF0.0
aF9170.506912442403
aF0.0
aF0.0
aF0.0
aF2777.7777777777806
aF0.0
aF0.0
aF1547.1892728210455
aF0.0
aF304.2056430146778
aF769.6254489481779
aF0.0
aF577.5524610152094
aF56930.48750103811
aF203.08692120227505
aF0.0
aF7871.344235597476
aF3262.7559875043394
aF0.0
aF0.0
aF0.0
aF0.0
aF630.089181853431
aF1478.9617688382793
aF553.063356480059
aF4229.9672326482005
aF0.0
aF0.0
aF684.6970215679561
aF0.0
aF0.0
aF0.0
aF419.04123365739196
aF440.14084507042287
aF0.0
aF4146.919431279621
aF0.0
aF277.83951989331007
aF0.0
aF1595.6234328698463
aF1411.3927623779107
aF16226.968174204354
aF0.0
aF482.0051413881752
aF0.0
aF172.42865764290008
aF0.0
aF9803.921568627451
aF0.0
aF2368.1717713924904
aF0.0
aF131.792821684312
aF355.85077990629304
aF5318.28295436045
aF10404.28061831151
aF25483.669648429423
aF0.0
aF0.0
aF190.294957183635
aF0.0
aF0.0
aF7300.978143866705
aF1268.6598722882402
aF12617.23983921394
aF5658.53658536585
aF3823.339237018917
aF4016.518640040732
aF3502.4372630438716
aF1288.3076322467296
aF4985.754985754995
aF7760.58159760938
aF438.6542088871342
aF13346.219338211597
aF2543.006731488411
aF100.11012113324622
aF117.7347827793258
aF0.0
aF10961.02388858439
aF252.09024830889493
aF0.0
aF0.0
aF0.0
aF689.2637041842357
aF0.0
aF0.0
aF560.5156744204668
aF1502.5543423820486
aF322.9378114043181
aF2360.160490913378
aF0.0
aF925.5650818394386
aF379.9598328176745
aF4403.6098727846065
aF1125.7563675594504
aF5316.007088009455
aF2363.901828547591
aF155.20720161415503
aF0.0
aF9013.785790031818
aF3508.4098648230283
aF0.0
aF2394.3732229261186
aF0.0
aF121.98097096852908
aF986.3980895026482
aF1517.5204635335185
aF1090.0802695471207
aF412.5412541254129
aF0.0
aF442.5513082923052
aF0.0
aF248.69435463815
aF260.67462593191203
aF260.79869600652006
aF1185.9582542694498
aF0.0
aF146.93637654895397
aF0.0
aF9642.207398423285
aF6185.867113019429
aF1148.8692707703503
aF355.13465522343876
aF0.0
aF8214.000145380529
aF494.0362763780085
aF0.0
aF1823.1788620098491
aF0.0
aF1311.4092605669293
aF303.444090426339
aF0.0
aF0.0
aF2276.43885782155
aF0.0
aF855.3862603581935
aF0.0
aF0.0
aF3288.81402157783
aF687.8439219609797
aF0.0
aF1172.5720112159097
aF0.0
aF0.0
aF0.0
aF0.0
aF0.0
aF11162.790697674402
aF10305.913075918696
aF0.0
aF1743.2646592710012
aF1096.2336543731906
aF4338.289056787721
aF0.0
aF0.0
asS'd__Bacteria.p__Actinobacteriota.c__Actinobacteria.o__Bifidobacteriales'
p41
(lp42
F56968.37116033182
aF2072.464803830491
aF350039.1542678151
aF490.22010882886406
aF1914.3688105142992
aF87665.99696182685
aF12681.864156228079
aF266016.0875423625
aF851.8371287409857
aF298443.205842783
aF42814.51668864059
aF3727.5900834270233
aF12179.2366809952
aF468870.1320407821
aF11177.680407761809
aF16370.948663354604
aF283108.1861216946
aF322.58064516129014
aF0.0
aF3458.5412836003893
aF151946.6167970081
aF20664.983164983205
aF46296.72198979358
aF35841.44315214812
aF7735.946364105208
aF198183.31957060282
aF198113.92501330885
aF364545.9209851207
aF4483.861395931559
aF34011.42270422898
aF1245.7437089942664
aF203.08692120227505
aF63057.35008521258
aF3969.600325710795
aF833.0440819160008
aF6032.647267565651
aF187326.1987022833
aF460115.4552610863
aF641639.4631846212
aF205409.0732842187
aF307180.3593877098
aF136606.64905057504
aF429967.2326481981
aF3139.50313950314
aF389754.098360656
aF60321.8076001369
aF618483.262938914
aF807181.7966342736
aF479978.0981931012
aF438107.609788803
aF261443.6619718308
aF5287.459040810249
aF53613.744075829374
aF438.59649122806974
aF45899.08868637482
aF943149.879912106
aF199635.28607248678
aF195562.58115508407
aF23974.036850921286
aF141549.7254423429
aF4860.218508997434
aF7768.132999852878
aF67204.06931632043
aF592301.1648538151
aF2626.8880758044797
aF83386.14757808954
aF563782.7597095041
aF2471.576866040532
aF587444.537187541
aF22477.907597414203
aF488.413740706572
aF198.17677368212432
aF81755.77283128776
aF5683.598120384871
aF13913.734843967437
aF49381.54138915319
aF542197.3574574454
aF266.38252530634014
aF688397.9969111246
aF291157.44069015107
aF5880.601458984668
aF93073.1707317073
aF18863.681088527188
aF65961.41879278164
aF1299.8736233977254
aF4411.477649814558
aF70261.43790849677
aF17126.800767138
aF214326.44646225407
aF13668.369460168396
aF62004.48765893791
aF575432.9762739013
aF1255.8376829794784
aF0.0
aF3739.6434443405615
aF882.3158690811308
aF4336.476928258672
aF190137.28627979432
aF676.3195917489008
aF863404.1518001949
aF3070.837453807322
aF4285.13127465651
aF240.22100332305686
aF4908.344185114685
aF415.20575751983813
aF472.03209818267567
aF0.0
aF974.2790335151985
aF7327.79677576943
aF0.0
aF123270.32224776004
aF38442.60681236464
aF278.1060974761871
aF0.0
aF264573.66054978274
aF60003.53481795695
aF0.0
aF0.0
aF1047.5382850301796
aF387158.94717822084
aF9758.477677482315
aF19883.708856816505
aF46721.23608939576
aF4657.615697155883
aF94354.07826496939
aF53205.653420729184
aF1825.5241467057606
aF5615.776413739061
aF42651.0818204427
aF1042.6985037276502
aF161760.39119804403
aF1802.6565464895596
aF6265.728519336448
aF342.85154528089294
aF15365.124740124696
aF2789.569436021828
aF13172.258205370796
aF44322.167130245514
aF89730.68955312214
aF380.5899143672689
aF57207.2399505706
aF3317.1007128237648
aF628.6342920006294
aF44354.94843397098
aF114479.65685253801
aF2017.5527085645092
aF8420.57350933091
aF113921.33747722648
aF2611.064860364789
aF17023.8036324046
aF271801.65053052804
aF6415.396952686454
aF567.6084762865792
aF0.0
aF0.0
aF2188.594297148569
aF375.4458419373008
aF2141.2184552638296
aF37449.3927125506
aF62244.35354792808
aF1918.1324735746596
aF295564.047183918
aF139511.91167925598
aF4031.0077519379806
aF180656.5939190449
aF311080.8637010459
aF0.0
aF22629.394722418012
aF402924.6892517671
aF752.8703180877093
aF19753.754566364485
asS'd__Bacteria.p__Firmicutes.c__Incertae_Sedis'
p43
(lp44
F0.0
aF0.0
aF0.0
aF0.0
aF0.0
aF0.0
aF0.0
aF449.14458372463304
aF0.0
aF0.0
aF0.0
aF0.0
aF0.0
aF0.0
aF0.0
aF0.0
aF0.0
aF0.0
aF0.0
aF0.0
aF0.0
aF0.0
aF0.0
aF0.0
aF0.0
aF0.0
aF0.0
aF0.0
aF0.0
aF0.0
aF0.0
aF0.0
aF0.0
aF0.0
aF0.0
aF0.0
aF0.0
aF0.0
aF0.0
aF0.0
aF0.0
aF0.0
aF0.0
aF0.0
aF0.0
aF0.0
aF0.0
aF0.0
aF0.0
aF0.0
aF0.0
aF0.0
aF0.0
aF0.0
aF0.0
aF0.0
aF0.0
aF0.0
aF0.0
aF0.0
aF0.0
aF0.0
aF0.0
aF0.0
aF0.0
aF0.0
aF0.0
aF0.0
aF0.0
aF0.0
aF0.0
aF743.1629013079669
aF0.0
aF0.0
aF0.0
aF0.0
aF0.0
aF0.0
aF0.0
aF0.0
aF0.0
aF0.0
aF0.0
aF0.0
aF0.0
aF0.0
aF0.0
aF0.0
aF0.0
aF0.0
aF0.0
aF0.0
aF0.0
aF0.0
aF0.0
aF0.0
aF0.0
aF0.0
aF0.0
aF0.0
aF0.0
aF0.0
aF0.0
aF0.0
aF0.0
aF0.0
aF0.0
aF0.0
aF0.0
aF0.0
aF0.0
aF0.0
aF0.0
aF0.0
aF0.0
aF0.0
aF0.0
aF0.0
aF0.0
aF0.0
aF0.0
aF0.0
aF0.0
aF0.0
aF0.0
aF0.0
aF0.0
aF0.0
aF0.0
aF0.0
aF0.0
aF0.0
aF0.0
aF0.0
aF0.0
aF0.0
aF363.87453605996694
aF0.0
aF0.0
aF0.0
aF0.0
aF0.0
aF0.0
aF0.0
aF0.0
aF0.0
aF0.0
aF0.0
aF0.0
aF0.0
aF0.0
aF0.0
aF0.0
aF0.0
aF0.0
aF0.0
aF0.0
aF0.0
aF0.0
aF0.0
aF0.0
aF0.0
aF0.0
aF0.0
aF0.0
aF0.0
aF0.0
aF0.0
aF0.0
aF0.0
aF0.0
asS'd__Bacteria.p__Patescibacteria'
p45
(lp46
F729.1951508522473
aF285.8572143214461
aF0.0
aF0.0
aF404.9626329934098
aF441.02513843289125
aF155.60569516844294
aF326.6506063451881
aF0.0
aF0.0
aF0.0
aF473.34477249866944
aF195.388823759281
aF4094.9356510112043
aF0.0
aF0.0
aF0.0
aF0.0
aF0.0
aF0.0
aF0.0
aF589.2255892255891
aF321.8242839409678
aF9399.477806788514
aF6664.815329075262
aF1445.0867052023086
aF0.0
aF3302.9758850692633
aF230.78698361412395
aF2470.6410832317265
aF1993.189934390836
aF1177.9041429731901
aF18429.70948436445
aF237.49745538440635
aF138.84068031933398
aF0.0
aF0.0
aF0.0
aF362.7130939426911
aF0.0
aF0.0
aF0.0
aF0.0
aF0.0
aF0.0
aF0.0
aF378.23866859988703
aF0.0
aF146.01204599379406
aF419.04123365739196
aF0.0
aF0.0
aF518.3649289099519
aF0.0
aF0.0
aF0.0
aF136.76772281741555
aF0.0
aF994.5561139028474
aF0.0
aF2289.524421593836
aF0.0
aF0.0
aF0.0
aF328.361009475561
aF2942.5079221367077
aF0.0
aF0.0
aF0.0
aF177.92538995314604
aF0.0
aF0.0
aF0.0
aF0.0
aF0.0
aF0.0
aF0.0
aF0.0
aF0.0
aF253.73197445764808
aF0.0
aF0.0
aF0.0
aF707.1335633874534
aF0.0
aF156.15850087839192
aF0.0
aF1739.44070291245
aF0.0
aF0.0
aF0.0
aF0.0
aF6357.678270083593
aF0.0
aF225.66813888261987
aF0.0
aF0.0
aF1473.9324517813538
aF0.0
aF121.63477132662997
aF0.0
aF0.0
aF360.3315049845859
aF0.0
aF0.0
aF0.0
aF0.0
aF0.0
aF108.55995223362115
aF217.4622159399801
aF515.9716684647501
aF639.8897420752127
aF0.0
aF0.0
aF368.4869924091676
aF132.55567338282108
aF309.56557630791485
aF0.0
aF399.0622038210208
aF0.0
aF0.0
aF0.0
aF0.0
aF346.84372212862917
aF0.0
aF0.0
aF663.8269624384582
aF0.0
aF2238.24919174335
aF0.0
aF0.0
aF0.0
aF0.0
aF0.0
aF0.0
aF0.0
aF0.0
aF0.0
aF0.0
aF1141.7697431018098
aF0.0
aF141.15322182228786
aF345.74886060034623
aF0.0
aF374.79698496647603
aF151.31645314233793
aF1099.9848277954802
aF0.0
aF0.0
aF0.0
aF428.70922796613206
aF0.0
aF0.0
aF5402.659770964173
aF3088.2765812377197
aF9379.689844922455
aF563.1687629059508
aF0.0
aF0.0
aF933.6653032189217
aF0.0
aF0.0
aF464.84601975595587
aF0.0
aF6481.999626935267
aF371.2182144403889
aF0.0
aF0.0
aF7262.978308554722
aF0.0
aF676.4984440535786
asS'd__Archaea.p__Euryarchaeota'
p47
(lp48
F0.0
aF0.0
aF0.0
aF0.0
aF0.0
aF0.0
aF0.0
aF0.0
aF0.0
aF0.0
aF0.0
aF0.0
aF0.0
aF0.0
aF0.0
aF0.0
aF0.0
aF368.6635944700461
aF114.15090749971495
aF56650.03064530249
aF0.0
aF547.1380471380471
aF0.0
aF0.0
aF6426.786210179712
aF0.0
aF0.0
aF128.27090815802964
aF0.0
aF0.0
aF0.0
aF0.0
aF0.0
aF2748.1848408767055
aF0.0
aF0.0
aF0.0
aF0.0
aF0.0
aF0.0
aF0.0
aF0.0
aF0.0
aF0.0
aF0.0
aF0.0
aF4286.7049107987095
aF0.0
aF0.0
aF0.0
aF9362.99615877081
aF186.17813523979694
aF0.0
aF0.0
aF0.0
aF0.0
aF0.0
aF0.0
aF0.0
aF0.0
aF0.0
aF0.0
aF0.0
aF1658.56668980946
aF1219.62660662351
aF0.0
aF81654.56267761292
aF0.0
aF0.0
aF0.0
aF0.0
aF0.0
aF0.0
aF0.0
aF0.0
aF0.0
aF0.0
aF0.0
aF0.0
aF5159.216813972172
aF0.0
aF0.0
aF295549.7455792638
aF0.0
aF7329.842931937174
aF13585.789576420093
aF0.0
aF0.0
aF0.0
aF0.0
aF0.0
aF0.0
aF0.0
aF0.0
aF0.0
aF0.0
aF0.0
aF0.0
aF0.0
aF0.0
aF0.0
aF136.03591348115899
aF0.0
aF0.0
aF0.0
aF0.0
aF0.0
aF0.0
aF0.0
aF18919.21278677828
aF0.0
aF0.0
aF0.0
aF0.0
aF0.0
aF574.4079179922235
aF0.0
aF0.0
aF0.0
aF0.0
aF0.0
aF0.0
aF0.0
aF0.0
aF0.0
aF0.0
aF0.0
aF0.0
aF0.0
aF0.0
aF0.0
aF0.0
aF0.0
aF244.89396091492395
aF0.0
aF1273.499090357789
aF1892.1475875118297
aF0.0
aF0.0
aF0.0
aF0.0
aF7269.390923847834
aF0.0
aF0.0
aF0.0
aF0.0
aF0.0
aF0.0
aF0.0
aF0.0
aF0.0
aF0.0
aF0.0
aF0.0
aF0.0
aF187.59379689844891
aF0.0
aF3211.827682895739
aF0.0
aF0.0
aF0.0
aF0.0
aF0.0
aF744.1860465116281
aF0.0
aF0.0
aF0.0
aF9396.288466055914
aF0.0
aF0.0
aF3720.7414422946777
asS'd__Archaea.p__Euryarchaeota.c__Methanobacteria.o__Methanobacteriales'
p49
(lp50
F0.0
aF0.0
aF0.0
aF0.0
aF0.0
aF0.0
aF0.0
aF0.0
aF0.0
aF0.0
aF0.0
aF0.0
aF0.0
aF0.0
aF0.0
aF0.0
aF0.0
aF368.6635944700461
aF114.15090749971495
aF56650.03064530249
aF0.0
aF547.1380471380471
aF0.0
aF0.0
aF6426.786210179712
aF0.0
aF0.0
aF128.27090815802964
aF0.0
aF0.0
aF0.0
aF0.0
aF0.0
aF2748.1848408767055
aF0.0
aF0.0
aF0.0
aF0.0
aF0.0
aF0.0
aF0.0
aF0.0
aF0.0
aF0.0
aF0.0
aF0.0
aF4286.7049107987095
aF0.0
aF0.0
aF0.0
aF9362.99615877081
aF186.17813523979694
aF0.0
aF0.0
aF0.0
aF0.0
aF0.0
aF0.0
aF0.0
aF0.0
aF0.0
aF0.0
aF0.0
aF1658.56668980946
aF1219.62660662351
aF0.0
aF81654.56267761292
aF0.0
aF0.0
aF0.0
aF0.0
aF0.0
aF0.0
aF0.0
aF0.0
aF0.0
aF0.0
aF0.0
aF0.0
aF5159.216813972172
aF0.0
aF0.0
aF295549.7455792638
aF0.0
aF7329.842931937174
aF13585.789576420093
aF0.0
aF0.0
aF0.0
aF0.0
aF0.0
aF0.0
aF0.0
aF0.0
aF0.0
aF0.0
aF0.0
aF0.0
aF0.0
aF0.0
aF0.0
aF136.03591348115899
aF0.0
aF0.0
aF0.0
aF0.0
aF0.0
aF0.0
aF0.0
aF18919.21278677828
aF0.0
aF0.0
aF0.0
aF0.0
aF0.0
aF574.4079179922235
aF0.0
aF0.0
aF0.0
aF0.0
aF0.0
aF0.0
aF0.0
aF0.0
aF0.0
aF0.0
aF0.0
aF0.0
aF0.0
aF0.0
aF0.0
aF0.0
aF0.0
aF244.89396091492395
aF0.0
aF1273.499090357789
aF1892.1475875118297
aF0.0
aF0.0
aF0.0
aF0.0
aF7269.390923847834
aF0.0
aF0.0
aF0.0
aF0.0
aF0.0
aF0.0
aF0.0
aF0.0
aF0.0
aF0.0
aF0.0
aF0.0
aF0.0
aF187.59379689844891
aF0.0
aF3211.827682895739
aF0.0
aF0.0
aF0.0
aF0.0
aF0.0
aF744.1860465116281
aF0.0
aF0.0
aF0.0
aF9396.288466055914
aF0.0
aF0.0
aF3720.7414422946777
asS'd__Bacteria.p__Bacteroidota'
p51
(lp52
F24428.037553550308
aF56957.04995354823
aF12216.13155833988
aF92700.62257953822
aF9903.177115929755
aF69534.9634929191
aF15171.555278923252
aF22130.578579886467
aF39638.821057413836
aF343340.380549683
aF633890.7778780098
aF27690.669191172125
aF525335.417480787
aF250.7103459802776
aF146114.6382902621
aF360397.4449964511
aF16664.742331524467
aF80000.00000000003
aF0.0
aF559232.9918571048
aF27626.65759945594
aF349537.0370370371
aF325824.1000413769
aF155566.1049133631
aF75812.27436823105
aF454.1701073492976
aF106167.76941212293
aF26680.348896870128
aF8044.574857406608
aF8342.424436886351
aF313470.6419732584
aF5767.668562144601
aF34521.025722325736
aF48585.19373006717
aF263589.03158625495
aF187579.84386089403
aF337.0691834499033
aF0.0
aF3627.1309394269115
aF28547.886777820855
aF2957.9235376765487
aF0.0
aF31992.850759606805
aF65793.0657930658
aF6147.54098360656
aF0.0
aF5106.22202609847
aF0.0
aF13323.599196933705
aF2011.3979215554803
aF1200.3841229193351
aF0.0
aF130924.17061611364
aF40789.47368421047
aF10280.062236052503
aF0.0
aF61408.707545019344
aF48721.278157285626
aF4292.29480737019
aF517555.0501969051
aF123112.1465295628
aF36780.93276445489
aF48323.131304422815
aF11262.824963357201
aF0.0
aF4753.282028066997
aF5557.309756867701
aF4201.6806722689125
aF1976.89232526468
aF10972.065713777401
aF28110.924187333803
aF122621.8787158147
aF266850.4264614102
aF0.0
aF3909.096932352741
aF184110.371075167
aF11189.14414950605
aF133.19126265317007
aF175036.27088500987
aF407197.5303421151
aF13212.7437844276
aF541756.0975609759
aF30389.92437659888
aF1301.1257566329107
aF21014.623578263207
aF3669.724770642198
aF8463.214345567298
aF154676.419428215
aF438.6542088871342
aF35252.427631276194
aF101458.48915482403
aF14082.15703941002
aF115497.82190651854
aF851.3657325292654
aF2482.349527708826
aF246292.17259778993
aF0.0
aF274656.7843005132
aF140582.24968489676
aF9284.787544599418
aF20246.707958153314
aF918.242415997823
aF54570.204588221175
aF139787.63898627687
aF52777.26517807711
aF24923.294784045283
aF5333.792154163799
aF166845.28448947793
aF56451.17516148298
aF197673.1542894422
aF24438.294479103108
aF12010.238235873214
aF320795.3834387821
aF8288.06456619587
aF286240.69570344174
aF95307.52916224819
aF31782.065834279183
aF1736.71413685307
aF21549.35900633509
aF4276.335601999638
aF1890.7050500122011
aF196812.37670023902
aF27499.310217971073
aF30373.60023783572
aF72371.52286657238
aF2253.1749283080694
aF80931.57050395533
aF11949.849810630803
aF14486.4461576722
aF21375.319326416804
aF19201.30399348
aF38614.80075901329
aF11504.288428945596
aF418866.6307488859
aF779.6257796257798
aF226622.19526986082
aF255658.24903573192
aF137985.24609989102
aF172358.68600177587
aF0.0
aF167769.135712728
aF111581.62185051909
aF46173.188747446235
aF15156.875017007293
aF144046.974555449
aF16947.442751941893
aF1820.6645425580302
aF437948.7729075127
aF18050.404904260995
aF163705.646558123
aF34225.2866992962
aF73242.44854317035
aF7252.774974772963
aF1708.5334318433709
aF35294.5894998596
aF1375.6878439219595
aF1314.0604467805495
aF61330.61432577109
aF118737.348178138
aF133.38075760270297
aF204.05664612496398
aF185855.900758709
aF5926.786751888439
aF123038.75968992202
aF9559.783622458495
aF680.5667264740458
aF190253.56576862113
aF13389.711064129706
aF25006.09310260781
aF58018.068887634116
aF22595.048031389484
asS'd__Bacteria.p__Synergistota.c__Synergistia.o__Synergistales'
p53
(lp54
F2552.183027982861
aF0.0
aF0.0
aF0.0
aF0.0
aF0.0
aF13459.892632070365
aF0.0
aF0.0
aF0.0
aF0.0
aF0.0
aF0.0
aF0.0
aF0.0
aF0.0
aF0.0
aF783.4101382488483
aF0.0
aF0.0
aF0.0
aF1809.7643097643104
aF0.0
aF0.0
aF753.7588765025586
aF0.0
aF0.0
aF0.0
aF0.0
aF0.0
aF0.0
aF0.0
aF0.0
aF135.7128316482319
aF624.7830614370008
aF0.0
aF0.0
aF0.0
aF0.0
aF0.0
aF0.0
aF0.0
aF0.0
aF0.0
aF0.0
aF0.0
aF189.119334299943
aF0.0
aF0.0
aF0.0
aF0.0
aF0.0
aF0.0
aF0.0
aF0.0
aF0.0
aF410.3031684522456
aF0.0
aF471.10552763819146
aF0.0
aF0.0
aF0.0
aF258.6429864643501
aF0.0
aF2204.70963505019
aF0.0
aF252.60498894853203
aF0.0
aF0.0
aF0.0
aF0.0
aF0.0
aF5980.861244019145
aF0.0
aF0.0
aF0.0
aF0.0
aF0.0
aF1825.2445359666788
aF0.0
aF0.0
aF0.0
aF0.0
aF989.9869887424346
aF3177.46885719444
aF273.27737653718486
aF0.0
aF0.0
aF0.0
aF0.0
aF0.0
aF2402.6429071979237
aF353.20434833797736
aF0.0
aF0.0
aF0.0
aF0.0
aF0.0
aF92.22539887485017
aF0.0
aF0.0
aF0.0
aF0.0
aF0.0
aF0.0
aF0.0
aF0.0
aF0.0
aF0.0
aF0.0
aF0.0
aF0.0
aF208.57957310714008
aF0.0
aF0.0
aF0.0
aF154.78278815395694
aF0.0
aF0.0
aF0.0
aF0.0
aF0.0
aF0.0
aF0.0
aF0.0
aF0.0
aF0.0
aF0.0
aF0.0
aF0.0
aF0.0
aF0.0
aF0.0
aF0.0
aF0.0
aF485.14251061249166
aF2183.2472163597995
aF0.0
aF0.0
aF0.0
aF0.0
aF0.0
aF125.72685840012608
aF0.0
aF0.0
aF0.0
aF0.0
aF0.0
aF0.0
aF0.0
aF0.0
aF0.0
aF0.0
aF0.0
aF0.0
aF0.0
aF0.0
aF0.0
aF0.0
aF0.0
aF0.0
aF0.0
aF0.0
aF0.0
aF0.0
aF0.0
aF0.0
aF391.51201941899615
aF0.0
aF0.0
aF0.0
asS'd__Bacteria.p__Firmicutes.c__Clostridia.o__Monoglobales'
p55
(lp56
F0.0
aF0.0
aF0.0
aF16667.4837001814
aF1472.5913927033093
aF56990.24844416132
aF389.01423792110734
aF0.0
aF28735.30580952922
aF0.0
aF0.0
aF3372.5815040530133
aF0.0
aF0.0
aF0.0
aF189.25952211970704
aF192.43351422083668
aF276.4976958525351
aF0.0
aF612.9060502582959
aF255.01530091805478
aF0.0
aF25240.218840513087
aF3370.519819605982
aF7259.888126314119
aF11023.94715111479
aF17796.03011635869
aF1186.5059004617742
aF5934.522435791759
aF256.68998267342585
aF581.347064197326
aF20349.309504467907
aF0.0
aF305.35387120852334
aF6317.250954529679
aF851.6678495386802
aF4887.503160023597
aF2164.786145368671
aF0.0
aF630.089181853431
aF0.0
aF307.25742026669906
aF357.4620196604111
aF273.000273000273
aF0.0
aF0.0
aF189.119334299943
aF0.0
aF15732.797955831405
aF2220.91853838418
aF200.06402048655585
aF0.0
aF4480.154028436019
aF13201.75438596489
aF24949.98888641921
aF0.0
aF6519.261454296791
aF225.82284198046608
aF46168.34170854278
aF0.0
aF11166.452442159349
aF24863.910548771495
aF301.7501508750751
aF0.0
aF3658.87981987053
aF23358.985966500684
aF0.0
aF0.0
aF87.8618811228748
aF10556.906470553304
aF1410.97302870787
aF0.0
aF884.1273143332647
aF0.0
aF0.0
aF0.0
aF3213.903106773004
aF0.0
aF0.0
aF126.86598722882404
aF483.84695548608005
aF0.0
aF1012.0603862697093
aF1470.837811845901
aF0.0
aF0.0
aF0.0
aF20917.8894786138
aF1052.7701013291203
aF0.0
aF0.0
aF1134.5813728434584
aF35477.41454417014
aF0.0
aF0.0
aF0.0
aF0.0
aF0.0
aF0.0
aF0.0
aF884.8175714360076
aF3672.96966399129
aF5525.083076430317
aF2554.3423820494777
aF5628.344713046691
aF4484.304932735427
aF3011.011699931179
aF1704.9883086515993
aF1954.0791402051825
aF13863.216266173726
aF2814.390918898641
aF5512.896239417216
aF1390.5304873809405
aF3228.30979357442
aF13707.716117620987
aF2032.5203252032518
aF1908.987720565469
aF3473.42827370615
aF5437.222527061408
aF301.1503945070168
aF2073.6765064649912
aF5866.4728480946915
aF22256.966798491678
aF0.0
aF4891.560584629889
aF59094.63334698889
aF442.5513082923052
aF2154.8909494580107
aF0.0
aF4275.06386528335
aF16854.115729421403
aF5645.161290322579
aF4879.050896204609
aF1224.4698045746197
aF0.0
aF3820.4972710733773
aF291.09962884797295
aF3567.5414197605514
aF27167.801124593083
aF1807.8020932445295
aF0.0
aF1834.991883689742
aF0.0
aF32272.98702005499
aF0.0
aF5901.341672551197
aF25375.512061902602
aF0.0
aF4313.933247559219
aF2919.78027416242
aF1750.5626808617103
aF7217.321571772254
aF9460.141271442993
aF0.0
aF6898.487947699839
aF88919.45972986486
aF0.0
aF4486.3624776956385
aF16384.1093117409
aF533.5230304108129
aF0.0
aF0.0
aF9180.708890180129
aF1116.2790697674402
aF0.0
aF0.0
aF554.6751188589543
aF3915.120194189962
aF0.0
aF2540.9373235460207
aF14815.31592477339
asS'd__Bacteria.p__Proteobacteria.c__Alphaproteobacteria.o__Rhodospirillales'
p57
(lp58
F0.0
aF0.0
aF0.0
aF0.0
aF0.0
aF0.0
aF0.0
aF0.0
aF0.0
aF0.0
aF0.0
aF0.0
aF0.0
aF0.0
aF0.0
aF0.0
aF0.0
aF0.0
aF0.0
aF0.0
aF0.0
aF0.0
aF0.0
aF0.0
aF2538.9772682191497
aF0.0
aF0.0
aF0.0
aF0.0
aF0.0
aF0.0
aF0.0
aF0.0
aF0.0
aF0.0
aF0.0
aF0.0
aF0.0
aF0.0
aF0.0
aF0.0
aF0.0
aF0.0
aF0.0
aF0.0
aF0.0
aF0.0
aF0.0
aF0.0
aF0.0
aF0.0
aF0.0
aF0.0
aF0.0
aF0.0
aF0.0
aF0.0
aF0.0
aF0.0
aF0.0
aF0.0
aF0.0
aF0.0
aF0.0
aF0.0
aF0.0
aF0.0
aF0.0
aF0.0
aF0.0
aF0.0
aF0.0
aF0.0
aF0.0
aF0.0
aF0.0
aF119.03344839900002
aF0.0
aF0.0
aF0.0
aF0.0
aF0.0
aF0.0
aF0.0
aF0.0
aF0.0
aF0.0
aF0.0
aF0.0
aF0.0
aF0.0
aF0.0
aF0.0
aF0.0
aF0.0
aF0.0
aF0.0
aF0.0
aF0.0
aF0.0
aF0.0
aF0.0
aF0.0
aF0.0
aF0.0
aF0.0
aF0.0
aF0.0
aF0.0
aF0.0
aF0.0
aF0.0
aF0.0
aF0.0
aF0.0
aF0.0
aF0.0
aF0.0
aF0.0
aF0.0
aF0.0
aF0.0
aF0.0
aF0.0
aF0.0
aF0.0
aF0.0
aF0.0
aF0.0
aF0.0
aF0.0
aF0.0
aF0.0
aF0.0
aF0.0
aF0.0
aF0.0
aF0.0
aF0.0
aF0.0
aF0.0
aF0.0
aF0.0
aF0.0
aF0.0
aF0.0
aF0.0
aF0.0
aF0.0
aF0.0
aF0.0
aF0.0
aF0.0
aF0.0
aF0.0
aF0.0
aF0.0
aF0.0
aF0.0
aF0.0
aF0.0
aF0.0
aF0.0
aF0.0
aF0.0
aF0.0
aF0.0
aF0.0
aF0.0
aF0.0
aF0.0
asS'd__Bacteria.p__Proteobacteria.c__Alphaproteobacteria'
p59
(lp60
F0.0
aF0.0
aF0.0
aF0.0
aF3239.70106394728
aF980.0558631842017
aF0.0
aF2123.2289412437203
aF0.0
aF0.0
aF0.0
aF0.0
aF325.648039598802
aF793.9160956042122
aF0.0
aF236.57440264963307
aF1116.114382480853
aF1797.2350230414786
aF1103.4587724972394
aF569.127046668418
aF0.0
aF0.0
aF0.0
aF0.0
aF3610.1083032491015
aF123.86457473162687
aF0.0
aF865.8286300667002
aF0.0
aF866.328691522813
aF913.5453865957976
aF0.0
aF594.5067575601447
aF101.78462373617444
aF0.0
aF0.0
aF0.0
aF393.5974809761222
aF0.0
aF242.34199302055063
aF0.0
aF0.0
aF0.0
aF0.0
aF0.0
aF136.939404313591
aF0.0
aF0.0
aF255.5210804891401
aF251.4247401944354
aF560.1792573623563
aF0.0
aF0.0
aF0.0
aF111.13580795732403
aF0.0
aF0.0
aF0.0
aF0.0
aF0.0
aF361.50385604113114
aF12211.269677799026
aF0.0
aF0.0
aF0.0
aF135.80805794477092
aF126.30249447426601
aF0.0
aF307.51658393006204
aF0.0
aF0.0
aF0.0
aF0.0
aF0.0
aF132.5117604187371
aF95.1474785918173
aF119.03344839900002
aF0.0
aF0.0
aF0.0
aF74.43799315170465
aF0.0
aF449.8046161198729
aF0.0
aF144.43040259974728
aF0.0
aF251.3826043237812
aF446.01043664421695
aF87.73084177742693
aF92.04289198766617
aF448.7658937920721
aF0.0
aF941.8782622346064
aF0.0
aF64.47661110932003
aF0.0
aF168.4068710003368
aF0.0
aF215.1925973746505
aF0.0
aF0.0
aF0.0
aF0.0
aF0.0
aF0.0
aF0.0
aF0.0
aF97.42790335151986
aF0.0
aF0.0
aF0.0
aF0.0
aF0.0
aF0.0
aF0.0
aF0.0
aF0.0
aF0.0
aF0.0
aF0.0
aF0.0
aF0.0
aF0.0
aF0.0
aF0.0
aF0.0
aF0.0
aF0.0
aF0.0
aF0.0
aF0.0
aF142.314990512334
aF0.0
aF0.0
aF0.0
aF0.0
aF0.0
aF0.0
aF0.0
aF0.0
aF0.0
aF0.0
aF377.18057520037723
aF0.0
aF0.0
aF0.0
aF0.0
aF0.0
aF0.0
aF0.0
aF928.8699939266191
aF0.0
aF0.0
aF0.0
aF1764.729474992981
aF312.65632816408186
aF0.0
aF0.0
aF0.0
aF0.0
aF0.0
aF166.140554909453
aF0.0
aF0.0
aF0.0
aF0.0
aF0.0
aF234.90721165139811
aF194.97928345113306
aF0.0
aF270.5993776214308
asS'd__Bacteria.p__Firmicutes.c__Clostridia.o__Eubacteriales'
p61
(lp62
F1822.9878771306205
aF0.0
aF0.0
aF0.0
aF0.0
aF0.0
aF155.60569516844294
aF17761.626720019565
aF0.0
aF0.0
aF9159.669696759418
aF0.0
aF7555.0345186921995
aF2131.037940832361
aF938.9251542519908
aF0.0
aF3848.6702844167335
aF0.0
aF0.0
aF0.0
aF0.0
aF252.52525252525308
aF0.0
aF0.0
aF872.7734359503312
aF0.0
aF0.0
aF0.0
aF0.0
aF0.0
aF0.0
aF0.0
aF277.4364868614009
aF0.0
aF0.0
aF0.0
aF0.0
aF0.0
aF0.0
aF1841.799146956177
aF443.6885306514828
aF0.0
aF3336.3121834971707
aF0.0
aF0.0
aF0.0
aF4160.62535459875
aF0.0
aF146.01204599379406
aF0.0
aF1880.601792573628
aF0.0
aF0.0
aF307.0175438596488
aF0.0
aF0.0
aF0.0
aF0.0
aF0.0
aF0.0
aF0.0
aF0.0
aF0.0
aF732.8550489855741
aF0.0
aF0.0
aF4231.13356488791
aF0.0
aF1273.9972762816901
aF0.0
aF0.0
aF0.0
aF0.0
aF0.0
aF0.0
aF0.0
aF416.6170693965006
aF1243.1184514295908
aF0.0
aF2748.7630566245207
aF27951.46642846513
aF585.365853658537
aF1236.9626943296491
aF226.28274028398513
aF3682.9752662935557
aF663.6736287331637
aF125.69130216189012
aF0.0
aF2500.328990656671
aF0.0
aF149.58863126402403
aF4237.995127974107
aF6239.9434873042665
aF106.42071656615869
aF773.7193333118414
aF0.0
aF0.0
aF0.0
aF1813.766177872051
aF364.9043139798899
aF0.0
aF0.0
aF0.0
aF0.0
aF0.0
aF0.0
aF0.0
aF0.0
aF0.0
aF0.0
aF0.0
aF0.0
aF0.0
aF0.0
aF0.0
aF0.0
aF0.0
aF0.0
aF0.0
aF0.0
aF0.0
aF0.0
aF0.0
aF0.0
aF0.0
aF0.0
aF0.0
aF0.0
aF0.0
aF0.0
aF0.0
aF0.0
aF0.0
aF244.89396091492395
aF0.0
aF0.0
aF0.0
aF0.0
aF177.5673276117189
aF0.0
aF0.0
aF0.0
aF0.0
aF0.0
aF0.0
aF0.0
aF0.0
aF0.0
aF0.0
aF0.0
aF3572.57689971777
aF0.0
aF0.0
aF0.0
aF320.859904544178
aF1313.1565782891396
aF140.79219072648795
aF0.0
aF0.0
aF0.0
aF0.0
aF0.0
aF0.0
aF0.0
aF2937.8847229994385
aF0.0
aF0.0
aF0.0
aF0.0
aF0.0
aF0.0
asS'd__Bacteria.p__Firmicutes.c__Clostridia.o__Peptococcales'
p63
(lp64
F1276.0915139914305
aF0.0
aF0.0
aF0.0
aF0.0
aF0.0
aF0.0
aF449.14458372463304
aF0.0
aF0.0
aF0.0
aF177.50428968700115
aF0.0
aF0.0
aF0.0
aF0.0
aF0.0
aF0.0
aF0.0
aF0.0
aF0.0
aF0.0
aF0.0
aF0.0
aF0.0
aF0.0
aF0.0
aF0.0
aF0.0
aF0.0
aF0.0
aF0.0
aF0.0
aF0.0
aF0.0
aF0.0
aF0.0
aF0.0
aF0.0
aF0.0
aF0.0
aF0.0
aF0.0
aF0.0
aF0.0
aF0.0
aF0.0
aF0.0
aF0.0
aF0.0
aF0.0
aF0.0
aF0.0
aF0.0
aF0.0
aF0.0
aF0.0
aF0.0
aF0.0
aF0.0
aF0.0
aF0.0
aF301.7501508750751
aF0.0
aF0.0
aF0.0
aF568.3612251341962
aF0.0
aF219.65470280718702
aF0.0
aF0.0
aF0.0
aF0.0
aF0.0
aF0.0
aF0.0
aF2261.6355195810015
aF0.0
aF0.0
aF0.0
aF0.0
aF0.0
aF0.0
aF0.0
aF0.0
aF0.0
aF0.0
aF0.0
aF0.0
aF0.0
aF0.0
aF0.0
aF0.0
aF0.0
aF0.0
aF0.0
aF0.0
aF0.0
aF0.0
aF0.0
aF156.1442773122371
aF0.0
aF800.7366777435236
aF0.0
aF0.0
aF0.0
aF0.0
aF0.0
aF0.0
aF0.0
aF0.0
aF0.0
aF347.63262184523415
aF0.0
aF0.0
aF220.92612230470118
aF0.0
aF0.0
aF0.0
aF0.0
aF0.0
aF0.0
aF0.0
aF0.0
aF235.73785950023594
aF0.0
aF0.0
aF0.0
aF0.0
aF0.0
aF0.0
aF189.75332068311195
aF0.0
aF0.0
aF0.0
aF0.0
aF0.0
aF0.0
aF0.0
aF0.0
aF0.0
aF0.0
aF0.0
aF0.0
aF0.0
aF0.0
aF0.0
aF0.0
aF0.0
aF0.0
aF0.0
aF0.0
aF0.0
aF0.0
aF10267.5169454137
aF0.0
aF0.0
aF0.0
aF0.0
aF0.0
aF0.0
aF0.0
aF0.0
aF0.0
aF0.0
aF0.0
aF0.0
aF626.4192310703943
aF0.0
aF0.0
aF0.0
asS'd__Bacteria.p__Firmicutes.c__Bacilli.o__Entomoplasmatales'
p65
(lp66
F0.0
aF0.0
aF0.0
aF0.0
aF0.0
aF0.0
aF0.0
aF0.0
aF0.0
aF0.0
aF0.0
aF0.0
aF0.0
aF0.0
aF0.0
aF0.0
aF76.97340568833467
aF0.0
aF0.0
aF0.0
aF0.0
aF0.0
aF0.0
aF0.0
aF0.0
aF0.0
aF0.0
aF0.0
aF0.0
aF256.68998267342585
aF0.0
aF0.0
aF0.0
aF0.0
aF0.0
aF0.0
aF0.0
aF0.0
aF0.0
aF0.0
aF0.0
aF0.0
aF0.0
aF0.0
aF0.0
aF0.0
aF0.0
aF0.0
aF0.0
aF0.0
aF0.0
aF0.0
aF0.0
aF0.0
aF0.0
aF0.0
aF0.0
aF0.0
aF261.7252931323285
aF0.0
aF0.0
aF235.39796969251094
aF0.0
aF0.0
aF0.0
aF0.0
aF0.0
aF0.0
aF0.0
aF0.0
aF0.0
aF0.0
aF0.0
aF0.0
aF0.0
aF0.0
aF0.0
aF0.0
aF0.0
aF0.0
aF0.0
aF0.0
aF0.0
aF0.0
aF0.0
aF0.0
aF0.0
aF0.0
aF0.0
aF0.0
aF0.0
aF0.0
aF0.0
aF0.0
aF0.0
aF0.0
aF0.0
aF0.0
aF0.0
aF0.0
aF0.0
aF0.0
aF0.0
aF0.0
aF0.0
aF0.0
aF0.0
aF0.0
aF0.0
aF0.0
aF0.0
aF0.0
aF0.0
aF0.0
aF0.0
aF0.0
aF0.0
aF0.0
aF0.0
aF0.0
aF0.0
aF0.0
aF0.0
aF0.0
aF0.0
aF0.0
aF0.0
aF0.0
aF0.0
aF0.0
aF0.0
aF0.0
aF0.0
aF0.0
aF0.0
aF0.0
aF0.0
aF0.0
aF0.0
aF0.0
aF0.0
aF0.0
aF0.0
aF0.0
aF0.0
aF0.0
aF0.0
aF0.0
aF0.0
aF0.0
aF0.0
aF0.0
aF0.0
aF0.0
aF0.0
aF0.0
aF0.0
aF0.0
aF0.0
aF0.0
aF0.0
aF0.0
aF0.0
aF0.0
aF0.0
aF0.0
aF0.0
aF0.0
aF0.0
aF0.0
aF0.0
asS'd__Bacteria.p__Synergistota.c__Synergistia'
p67
(lp68
F2552.183027982861
aF0.0
aF0.0
aF0.0
aF0.0
aF0.0
aF13459.892632070365
aF0.0
aF0.0
aF0.0
aF0.0
aF0.0
aF0.0
aF0.0
aF0.0
aF0.0
aF0.0
aF783.4101382488483
aF0.0
aF0.0
aF0.0
aF1809.7643097643104
aF0.0
aF0.0
aF753.7588765025586
aF0.0
aF0.0
aF0.0
aF0.0
aF0.0
aF0.0
aF0.0
aF0.0
aF135.7128316482319
aF624.7830614370008
aF0.0
aF0.0
aF0.0
aF0.0
aF0.0
aF0.0
aF0.0
aF0.0
aF0.0
aF0.0
aF0.0
aF189.119334299943
aF0.0
aF0.0
aF0.0
aF0.0
aF0.0
aF0.0
aF0.0
aF0.0
aF0.0
aF410.3031684522456
aF0.0
aF471.10552763819146
aF0.0
aF0.0
aF0.0
aF258.6429864643501
aF0.0
aF2204.70963505019
aF0.0
aF252.60498894853203
aF0.0
aF0.0
aF0.0
aF0.0
aF0.0
aF5980.861244019145
aF0.0
aF0.0
aF0.0
aF0.0
aF0.0
aF1825.2445359666788
aF0.0
aF0.0
aF0.0
aF0.0
aF989.9869887424346
aF3177.46885719444
aF273.27737653718486
aF0.0
aF0.0
aF0.0
aF0.0
aF0.0
aF2402.6429071979237
aF353.20434833797736
aF0.0
aF0.0
aF0.0
aF0.0
aF0.0
aF92.22539887485017
aF0.0
aF0.0
aF0.0
aF0.0
aF0.0
aF0.0
aF0.0
aF0.0
aF0.0
aF0.0
aF0.0
aF0.0
aF0.0
aF208.57957310714008
aF0.0
aF0.0
aF0.0
aF154.78278815395694
aF0.0
aF0.0
aF0.0
aF0.0
aF0.0
aF0.0
aF0.0
aF0.0
aF0.0
aF0.0
aF0.0
aF0.0
aF0.0
aF0.0
aF0.0
aF0.0
aF0.0
aF0.0
aF485.14251061249166
aF2183.2472163597995
aF0.0
aF0.0
aF0.0
aF0.0
aF0.0
aF125.72685840012608
aF0.0
aF0.0
aF0.0
aF0.0
aF0.0
aF0.0
aF0.0
aF0.0
aF0.0
aF0.0
aF0.0
aF0.0
aF0.0
aF0.0
aF0.0
aF0.0
aF0.0
aF0.0
aF0.0
aF0.0
aF0.0
aF0.0
aF0.0
aF0.0
aF391.51201941899615
aF0.0
aF0.0
aF0.0
asS'd__Bacteria.p__Firmicutes.c__Clostridia.o__Peptostreptococcales_Tissierellales'
p69
(lp70
F10664.479081214104
aF1000.5002501250606
aF313.23414252153424
aF1421.6383156037102
aF0.0
aF14896.849120399818
aF6535.439197074611
aF44751.133069290736
aF39127.718780169234
aF1845.08937151643
aF1387.8287419332498
aF32424.116916158826
aF6773.47922365507
aF7145.244860437912
aF1028.3465975140807
aF3690.560681334281
aF6542.739483508453
aF1889.4009216589907
aF0.0
aF1225.8121005165897
aF17936.07616456986
aF2609.4276094276106
aF22251.85048963269
aF6171.374317588423
aF20113.460546673563
aF12262.592898430988
aF912.6169290440333
aF49191.893278604395
aF1120.9653489828897
aF31059.48790348461
aF6643.966447969434
aF3249.390739236391
aF24850.38246601402
aF2510.6873854923037
aF0.0
aF0.0
aF252.80188758742747
aF3214.379427971662
aF6964.091403699673
aF8239.627762698707
aF15159.358130592293
aF860.320776746758
aF24486.148346738206
aF1023.75102375102
aF2166.27634660422
aF8421.773365285859
aF3971.50602029881
aF474.04598246029934
aF3394.780069355721
aF5070.39892725444
aF2160.6914212547995
aF148.94250819183796
aF1814.2772511848361
aF7192.982456140345
aF3500.7779506557013
aF102.20246307936
aF775.017095965352
aF6605.318127928643
aF25125.62814070354
aF0.0
aF49566.19537275061
aF3501.5447991761093
aF1465.6435899646506
aF617.1410938825891
aF281.452293836195
aF22589.406971480283
aF36627.72339753711
aF247.15768660405317
aF33519.30764837681
aF1186.1692663543104
aF3961.5781190644207
aF2031.3119302417772
aF7749.115872685677
aF3490.713806220631
aF265.0235208374742
aF4995.242626070411
aF15236.281395072056
aF221.98543775528313
aF1965.6479618102685
aF5582.103438068251
aF4577.936578829836
aF829.268292682927
aF6915.745972843045
aF650.5628783164564
aF324.96840584943135
aF3396.4473941050182
aF21199.93296463882
aF12800.499531689
aF2500.328990656671
aF1058.4932578581597
aF1495.8863126402402
aF35639.20312343575
aF12205.172481456755
aF7236.608726498755
aF57835.520165060116
aF2100.7520692407898
aF111359.04344897298
aF2989.97725932789
aF153.7089981247498
aF0.0
aF5204.809243741224
aF7073.86750102027
aF2562.3573687792787
aF2003.4057898427282
aF2721.9044104078207
aF4767.524191645027
aF3656.228492773569
aF48226.81215900228
aF10693.155295011713
aF5490.920952484506
aF4503.0254702378215
aF8023.232919866129
aF486.6856705833282
aF372.49728387397204
aF13302.380425970989
aF11399.787910922609
aF1031.8852543597195
aF978.875240771733
aF34020.05287574199
aF1505.7519725350794
aF2500.6099048548413
aF1090.2294673450301
aF0.0
aF4558.517490833422
aF6895.332390381898
aF512.0852109791069
aF17314.819936936405
aF3852.683818727961
aF49117.1350410346
aF3128.0955111829408
aF945.3952730236351
aF1565.4648956356696
aF2465.2046633454893
aF11363.079786452498
aF5197.505197505199
aF485.14251061249166
aF1018.8487009679097
aF6107.147176200272
aF591.8910920390647
aF666.0323501427208
aF7777.85854474086
aF0.0
aF8800.880088008807
aF2176.929984489369
aF1124.3909548994302
aF14980.328861091493
aF43316.64390835991
aF267.9241238881152
aF378.4151971543179
aF5493.14593952591
aF6001.929191525851
aF4490.777866880512
aF378.40565085771914
aF175794.2371629111
aF31323.948181125397
aF67471.23561780888
aF120189.60015017795
aF4027.529951567679
aF316.295546558704
aF64511.826427174085
aF8366.322491123537
aF9968.4332945672
aF11272.515979081896
aF17550.387596899203
aF9746.315985823534
aF0.0
aF4595.879556259913
aF2583.979328165371
aF29295.637338532808
aF3764.3515904385513
aF6764.984440535785
asS'd__Bacteria.p__Proteobacteria.c__Gammaproteobacteria.o__Pasteurellales'
p71
(lp72
F0.0
aF0.0
aF0.0
aF0.0
aF0.0
aF0.0
aF0.0
aF0.0
aF0.0
aF0.0
aF0.0
aF177.50428968700115
aF0.0
aF0.0
aF0.0
aF0.0
aF0.0
aF0.0
aF0.0
aF0.0
aF0.0
aF0.0
aF183.8995908234099
aF0.0
aF0.0
aF0.0
aF0.0
aF0.0
aF2538.6568197553697
aF2342.296091895011
aF0.0
aF0.0
aF0.0
aF0.0
aF0.0
aF0.0
aF0.0
aF196.7987404880611
aF0.0
aF0.0
aF0.0
aF0.0
aF0.0
aF0.0
aF0.0
aF0.0
aF0.0
aF0.0
aF0.0
aF0.0
aF0.0
aF0.0
aF8256.81279620853
aF0.0
aF0.0
aF0.0
aF0.0
aF0.0
aF0.0
aF0.0
aF763.1748071979439
aF0.0
aF0.0
aF0.0
aF0.0
aF1901.3128112267987
aF0.0
aF0.0
aF0.0
aF948.9354130834473
aF0.0
aF0.0
aF0.0
aF0.0
aF5167.958656330749
aF0.0
aF0.0
aF0.0
aF0.0
aF0.0
aF0.0
aF0.0
aF0.0
aF1923.4032924138712
aF0.0
aF0.0
aF0.0
aF0.0
aF0.0
aF0.0
aF0.0
aF0.0
aF0.0
aF0.0
aF0.0
aF0.0
aF0.0
aF0.0
aF0.0
aF0.0
aF104.09618487482408
aF0.0
aF0.0
aF1803.0652108584584
aF322.9378114043181
aF0.0
aF0.0
aF1704.9883086515993
aF11724.474841231116
aF0.0
aF187.62606125990905
aF0.0
aF0.0
aF0.0
aF20008.84368781778
aF972.0749381406868
aF0.0
aF0.0
aF199.5311019105099
aF0.0
aF0.0
aF0.0
aF0.0
aF0.0
aF0.0
aF665.7107742728389
aF1382.9728384134505
aF457.09808018806314
aF6901.26834120865
aF0.0
aF0.0
aF0.0
aF0.0
aF0.0
aF0.0
aF0.0
aF0.0
aF0.0
aF0.0
aF570.8848715509038
aF0.0
aF0.0
aF0.0
aF0.0
aF0.0
aF0.0
aF151.72204521316903
aF0.0
aF0.0
aF0.0
aF0.0
aF0.0
aF0.0
aF0.0
aF3288.81402157783
aF12381.190595297594
aF0.0
aF0.0
aF0.0
aF311.22176773964094
aF0.0
aF2713.62906352107
aF348.63451481696694
aF0.0
aF0.0
aF742.4364288807768
aF0.0
aF0.0
aF8286.619546673173
aF0.0
aF0.0
asS'd__Bacteria.p__Actinobacteriota.c__Actinobacteria.o__Actinomycetales'
p73
(lp74
F0.0
aF0.0
aF0.0
aF0.0
aF257.70349372307885
aF0.0
aF0.0
aF21232.28941243725
aF0.0
aF0.0
aF277.5657483866489
aF2603.3962487426825
aF0.0
aF4303.860939328101
aF0.0
aF567.7785663591201
aF4425.970827079246
aF0.0
aF0.0
aF0.0
aF1317.5790547432862
aF1010.1010101010104
aF1333.2720334697294
aF8497.507714217903
aF2419.9627087713698
aF4211.395540875306
aF0.0
aF1827.8604412519226
aF428.6043981405159
aF4363.729705448244
aF1536.4172410929368
aF649.8781478472791
aF6777.377036185641
aF0.0
aF0.0
aF0.0
aF0.0
aF918.3941222776175
aF0.0
aF0.0
aF0.0
aF0.0
aF297.8850163836761
aF0.0
aF0.0
aF342.34851078397804
aF441.27844669986797
aF829.5804693055235
aF0.0
aF0.0
aF0.0
aF297.8850163836759
aF3887.736966824642
aF0.0
aF0.0
aF255.506157698401
aF0.0
aF0.0
aF889.8659966499164
aF0.0
aF1767.352185089974
aF0.0
aF0.0
aF0.0
aF0.0
aF1629.6966953372587
aF0.0
aF0.0
aF0.0
aF0.0
aF0.0
aF0.0
aF832.1198252548377
aF0.0
aF0.0
aF0.0
aF0.0
aF399.57378795951024
aF468.01141947863465
aF718.9072609633362
aF409.4089623343752
aF0.0
aF18020.297433302385
aF0.0
aF469.39880844917866
aF0.0
aF0.0
aF847.419829624013
aF0.0
aF0.0
aF0.0
aF0.0
aF6475.413052862918
aF0.0
aF0.0
aF294.10528969370995
aF1263.0515325025285
aF884.3594710688113
aF0.0
aF0.0
aF1301.202310935301
aF0.0
aF0.0
aF0.0
aF0.0
aF0.0
aF0.0
aF0.0
aF0.0
aF0.0
aF0.0
aF0.0
aF0.0
aF0.0
aF552.7304886137515
aF0.0
aF0.0
aF0.0
aF0.0
aF0.0
aF0.0
aF0.0
aF965.6948404304231
aF0.0
aF0.0
aF0.0
aF331.9134812192291
aF0.0
aF808.2566525739869
aF0.0
aF0.0
aF0.0
aF308.15058291818593
aF0.0
aF1591.7359667359697
aF0.0
aF0.0
aF0.0
aF0.0
aF2473.8344433872494
aF0.0
aF0.0
aF1320.132013201321
aF0.0
aF0.0
aF0.0
aF531.027158246093
aF0.0
aF0.0
aF0.0
aF2072.0946018363
aF0.0
aF378.40565085771914
aF25166.23568526041
aF7901.175149400389
aF14882.441220610293
aF1501.7833677491994
aF0.0
aF0.0
aF311.22176773964094
aF0.0
aF0.0
aF0.0
aF0.0
aF7927.625443014356
aF0.0
aF0.0
aF0.0
aF16037.046063855707
aF0.0
aF0.0
asS'd__Bacteria.p__Actinobacteriota.c__Actinobacteria'
p75
(lp76
F56968.37116033182
aF2072.464803830491
aF350039.1542678151
aF490.22010882886406
aF2172.072304237378
aF88450.04165237422
aF12681.864156228079
aF289657.42517659557
aF2555.511386222957
aF298443.205842783
aF43092.08243702724
aF7336.843973729377
aF12179.2366809952
aF473675.4136720708
aF15067.513189662914
aF16938.727229713724
aF289381.51868529397
aF552.9953917050692
aF248544.57592937842
aF3589.8782943700244
aF153476.70860251642
aF21801.34680134684
aF47629.99402326331
aF44338.95086636602
aF10155.909072876579
aF202807.59702725025
aF198113.92501330885
aF366373.78142637265
aF4912.4657940720745
aF38503.49740101394
aF5273.648368075746
aF1056.0519902518292
aF72569.4582061749
aF3969.600325710795
aF833.0440819160008
aF6032.647267565651
aF187326.1987022833
aF461033.8493833639
aF641639.4631846212
aF205651.41527723926
aF307180.3593877098
aF136606.64905057504
aF430265.11766458175
aF3139.50313950314
aF389754.098360656
aF60664.15611092087
aF618924.5413856138
aF808189.1443470018
aF480124.11023909494
aF438107.609788803
aF261443.6619718308
aF5585.3440571939245
aF57501.48104265401
aF438.59649122806974
aF45899.08868637482
aF943405.3860698044
aF199635.28607248678
aF195562.58115508407
aF24863.902847571204
aF141549.7254423429
aF6868.573264781495
aF11151.978814182727
aF67204.06931632043
aF592301.1648538151
aF2626.8880758044797
aF85015.8442734268
aF564066.9403220712
aF2471.576866040532
aF587444.537187541
aF22477.907597414203
aF488.413740706572
aF198.17677368212432
aF82587.89265654261
aF5683.598120384871
aF13913.734843967437
aF49381.54138915319
aF542197.3574574454
aF665.9563132658503
aF688866.0083306031
aF292003.2139383432
aF6885.5143665326805
aF93365.85365853657
aF37108.88082988951
aF77897.83334276183
aF2058.133237046399
aF4411.477649814558
aF70806.10021786495
aF18598.63520806392
aF214326.44646225407
aF13668.369460168396
aF62116.679132385936
aF575432.9762739013
aF7809.740591028614
aF0.0
aF4319.932944324442
aF1176.4211587748407
aF5725.833614011453
aF191021.64575086313
aF676.3195917489008
aF863404.1518001949
aF4372.039764742623
aF4285.13127465651
aF240.22100332305686
aF4908.344185114685
aF415.20575751983813
aF472.03209818267567
aF0.0
aF974.2790335151985
aF10096.075557726774
aF0.0
aF123270.32224776004
aF38442.60681236464
aF278.1060974761871
aF0.0
aF265126.3910383965
aF60312.83138918353
aF0.0
aF0.0
aF1047.5382850301796
aF387158.94717822084
aF9758.477677482315
aF19883.708856816505
aF47686.93092982618
aF4657.615697155883
aF94354.07826496939
aF53205.653420729184
aF2157.4376279249896
aF5615.776413739061
aF51106.68987813979
aF1042.6985037276502
aF161760.39119804403
aF1802.6565464895596
aF6573.879102254634
aF342.85154528089294
aF16956.86070686067
aF2789.569436021828
aF13172.258205370796
aF44322.167130245514
aF89730.68955312214
aF4662.226450999048
aF57207.2399505706
aF3317.1007128237648
aF2011.6297344020134
aF44436.58330838934
aF114479.65685253801
aF2017.5527085645092
aF8951.600667577004
aF114189.2616011146
aF2611.064860364789
aF17023.8036324046
aF274373.90589832485
aF6415.396952686454
aF946.0141271442984
aF25166.23568526041
aF7901.175149400389
aF20635.317658829397
aF1877.2292096865
aF2141.2184552638296
aF37449.3927125506
aF62555.57531566773
aF1918.1324735746596
aF295564.047183918
aF139511.91167925598
aF4031.0077519379806
aF188957.2840887894
aF311080.8637010459
aF0.0
aF22629.394722418012
aF419156.714599074
aF752.8703180877093
aF19889.0542551752
asS'd__Bacteria.p__Actinobacteriota.c__Actinobacteria.o__Corynebacteriales'
p77
(lp78
F0.0
aF0.0
aF0.0
aF0.0
aF0.0
aF441.02513843289125
aF0.0
aF2164.060267036867
aF0.0
aF0.0
aF0.0
aF0.0
aF0.0
aF334.28046130703643
aF3889.8327819011033
aF0.0
aF1500.9814109225294
aF0.0
aF248011.87169437975
aF0.0
aF0.0
aF126.26262626262601
aF0.0
aF0.0
aF0.0
aF0.0
aF0.0
aF0.0
aF0.0
aF0.0
aF0.0
aF0.0
aF317.0702706987438
aF0.0
aF0.0
aF0.0
aF0.0
aF0.0
aF0.0
aF0.0
aF0.0
aF0.0
aF0.0
aF0.0
aF0.0
aF0.0
aF0.0
aF0.0
aF146.01204599379406
aF0.0
aF0.0
aF0.0
aF0.0
aF0.0
aF0.0
aF0.0
aF0.0
aF0.0
aF0.0
aF0.0
aF0.0
aF0.0
aF0.0
aF0.0
aF0.0
aF0.0
aF284.1806125670981
aF0.0
aF0.0
aF0.0
aF0.0
aF0.0
aF0.0
aF0.0
aF0.0
aF0.0
aF0.0
aF0.0
aF0.0
aF0.0
aF595.5039452136368
aF292.682926829268
aF224.90230805993585
aF0.0
aF288.86080519949456
aF0.0
aF544.6623093681925
aF624.414611301904
aF0.0
aF0.0
aF112.19147344801803
aF0.0
aF0.0
aF0.0
aF580.2894999838809
aF0.0
aF0.0
aF0.0
aF0.0
aF0.0
aF0.0
aF0.0
aF0.0
aF0.0
aF0.0
aF0.0
aF0.0
aF0.0
aF0.0
aF0.0
aF0.0
aF0.0
aF0.0
aF0.0
aF0.0
aF0.0
aF0.0
aF0.0
aF0.0
aF0.0
aF0.0
aF0.0
aF0.0
aF0.0
aF0.0
aF0.0
aF0.0
aF0.0
aF0.0
aF0.0
aF0.0
aF0.0
aF0.0
aF0.0
aF0.0
aF0.0
aF0.0
aF0.0
aF0.0
aF0.0
aF0.0
aF0.0
aF0.0
aF0.0
aF0.0
aF0.0
aF0.0
aF0.0
aF0.0
aF0.0
aF71.4515379943553
aF0.0
aF0.0
aF0.0
aF0.0
aF0.0
aF0.0
aF0.0
aF0.0
aF0.0
aF0.0
aF0.0
aF0.0
aF0.0
aF0.0
aF0.0
aF0.0
aF0.0
aF0.0
aF0.0
aF0.0
asS'd__Bacteria.p__Firmicutes.c__Clostridia.o__Oscillospirales'
p79
(lp80
F374350.5605687721
aF130136.49681983805
aF546123.7274862961
aF563655.0811314281
aF911718.1460074366
aF352134.07164208335
aF605695.1684431649
aF151892.5319505129
aF8007.269010165267
aF39208.1491447242
aF33169.106932204595
aF394887.87645701435
aF47023.576918067
aF12284.806953033612
aF257354.9137083072
aF284267.80222379905
aF33675.86498864642
aF165852.53456221207
aF0.0
aF129148.06059014097
aF4292.757565453927
aF165067.34006734003
aF268677.3021930029
aF48801.32921908382
aF257547.5066449798
aF13088.356729975189
aF405430.0707278117
aF143182.40123140055
aF71807.72147308028
aF26952.448180709736
aF481147.74520388636
aF726969.9431356621
aF35947.84194047002
aF114813.05557440463
aF447414.09232905187
aF354222.85308729607
aF450155.89449734555
aF149567.04277092608
aF31628.581791802713
aF288532.3768902676
aF75427.05021075207
aF816751.6745529401
aF79177.8373547811
aF754914.0049140049
aF104274.004683841
aF23005.8199246833
aF151295.467439955
aF0.0
aF141996.71472896505
aF240739.18873617201
aF82826.50448143415
aF0.0
aF493187.2037914692
aF716622.8070175435
aF412313.84752167115
aF1073.1258623332799
aF287713.6995669021
aF521199.11929091625
aF602386.9346733668
aF721.0605136169503
aF97927.37789203088
aF539061.3505958508
aF213983.96413483907
aF311424.82450050104
aF45970.541326578496
aF533182.4354911726
aF81528.26018313863
aF14541.11056187181
aF56978.42990818431
aF516517.4070339841
aF684864.600857437
aF165675.7827982559
aF65009.36134803416
aF14678.899082568803
aF1656.397005234214
aF417507.136060894
aF75943.34007856206
aF3374.178653880312
aF30514.34455000698
aF65885.73603416921
aF464604.7342563647
aF59073.1707317073
aF220685.38978381283
aF47773.94354245633
aF33796.7142083409
aF563146.5937926997
aF435268.9793866264
aF199455.867267294
aF176119.66486818407
aF98623.95876478437
aF394540.0149588631
aF128207.69513131115
aF61536.04646599431
aF1312.5221709826208
aF17602.114832844418
aF44872.06419898319
aF6652.071404513294
aF20508.717257643366
aF18691.014171969575
aF405.44923775543293
aF491386.04070160835
aF272513.94368113205
aF568683.1885334507
aF432334.9694480616
aF763102.0483484042
aF383526.0797734247
aF576049.55264969
aF496346.4536243178
aF475981.1105683116
aF400674.1328694139
aF419672.5925231012
aF301634.17995668435
aF513175.2763679342
aF59692.689740804
aF15586.999778907786
aF155885.4718981971
aF333144.1543700338
aF97003.3786984117
aF395769.94063949684
aF330843.8234054089
aF757623.8106855334
aF529799.6054407641
aF107376.0691621449
aF482410.0683777623
aF585219.2362093349
aF199457.18967636194
aF672622.6696907672
aF484981.0630795351
aF482529.22158666997
aF252645.84745320905
aF680162.999185004
aF485199.24098671693
aF375070.6178419189
aF279864.81853357493
aF7276.507276507279
aF358095.8156458458
aF241103.26759333393
aF583202.3219252632
aF460313.7022787807
aF33824.928639391095
aF366140.873737007
aF592349.4953772316
aF15527.26701241551
aF724482.2988380637
aF274684.54587098706
aF606325.0277413498
aF391632.52920649404
aF45493.516236201925
aF30992.204646938593
aF557183.154352452
aF78811.0464077739
aF558887.9978615344
aF136730.57517658905
aF369.4126339120802
aF276460.91525287804
aF54964.98249124557
aF703.9609536324386
aF625541.6772877899
aF467990.890688259
aF3112.2176773964093
aF122066.68571195398
aF203522.17976407998
aF570540.3834979659
aF544248.0620155041
aF14456.258160790892
aF1856.0910722019396
aF478129.9524564183
aF594785.0599013392
aF70777.47989276142
aF554865.4244306422
aF366459.20714382373
asS'd__Bacteria'
p81
(lp82
F1000000.0
aF1000000.0
aF1000000.0
aF1000000.0
aF1000000.0
aF1000000.0
aF1000000.0
aF1000000.0
aF1000000.0
aF1000000.0
aF1000000.0
aF1000000.0
aF1000000.0
aF1000000.0
aF1000000.0
aF1000000.0
aF1000000.0
aF999631.33640553
aF999885.8490925003
aF943349.9693546975
aF1000000.0
aF999452.861952862
aF1000000.0
aF1000000.0
aF993573.2137898203
aF1000000.0
aF1000000.0
aF999871.729091842
aF1000000.0
aF1000000.0
aF1000000.0
aF1000000.0
aF1000000.0
aF997251.8151591233
aF1000000.0
aF1000000.0
aF1000000.0
aF1000000.0
aF1000000.0
aF1000000.0
aF1000000.0
aF1000000.0
aF1000000.0
aF1000000.0
aF1000000.0
aF1000000.0
aF995713.2950892013
aF1000000.0
aF1000000.0
aF1000000.0
aF990637.0038412291
aF999813.8218647602
aF1000000.0
aF1000000.0
aF1000000.0
aF1000000.0
aF1000000.0
aF1000000.0
aF1000000.0
aF1000000.0000000001
aF1000000.0
aF1000000.0
aF1000000.0
aF998341.4333101906
aF998780.3733933766
aF1000000.0
aF918345.4373223871
aF1000000.0
aF1000000.0
aF1000000.0
aF1000000.0
aF1000000.0
aF1000000.0
aF1000000.0
aF1000000.0
aF1000000.0
aF1000000.0
aF1000000.0
aF1000000.0
aF994840.7831860279
aF1000000.0
aF1000000.0
aF704450.2544207362
aF1000000.0
aF992670.1570680629
aF986414.2104235798
aF1000000.0
aF1000000.0
aF1000000.0
aF1000000.0
aF1000000.0
aF1000000.0
aF1000000.0
aF1000000.0
aF1000000.0
aF1000000.0
aF1000000.0
aF1000000.0
aF1000000.0
aF1000000.0
aF1000000.0
aF999863.9640865189
aF1000000.0
aF1000000.0
aF1000000.0
aF1000000.0
aF1000000.0
aF1000000.0
aF1000000.0
aF981080.7872132218
aF1000000.0
aF1000000.0
aF1000000.0
aF1000000.0
aF1000000.0
aF999425.5920820078
aF1000000.0
aF1000000.0
aF1000000.0
aF1000000.0
aF1000000.0
aF1000000.0
aF1000000.0
aF1000000.0
aF1000000.0
aF1000000.0
aF1000000.0
aF1000000.0
aF1000000.0
aF1000000.0
aF1000000.0
aF1000000.0
aF1000000.0
aF999755.1060390851
aF1000000.0
aF998726.5009096421
aF998107.8524124882
aF1000000.0
aF1000000.0
aF1000000.0
aF1000000.0
aF992730.6090761521
aF1000000.0
aF1000000.0
aF1000000.0
aF1000000.0
aF1000000.0
aF1000000.0
aF1000000.0
aF1000000.0
aF1000000.0
aF1000000.0
aF1000000.0
aF1000000.0
aF1000000.0
aF999812.4062031015
aF1000000.0
aF996788.1723171044
aF1000000.0
aF1000000.0
aF1000000.0
aF1000000.0
aF1000000.0
aF999255.8139534884
aF1000000.0
aF1000000.0
aF1000000.0
aF990603.7115339441
aF1000000.0
aF1000000.0
aF996279.2585577053
asS'd__Bacteria.p__Bacteroidota.c__Bacteroidia.o__Bacteroidales'
p83
(lp84
F24428.037553550308
aF56957.04995354823
aF12216.13155833988
aF92700.62257953822
aF9903.177115929755
aF69534.9634929191
aF15171.555278923252
aF22130.578579886467
aF39638.821057413836
aF343340.380549683
aF633890.7778780098
aF27690.669191172125
aF525335.417480787
aF250.7103459802776
aF146114.6382902621
aF360397.4449964511
aF16664.742331524467
aF80000.00000000003
aF0.0
aF559232.9918571048
aF27626.65759945594
aF349537.0370370371
aF325824.1000413769
aF155566.1049133631
aF75812.27436823105
aF454.1701073492976
aF106167.76941212293
aF26680.348896870128
aF8044.574857406608
aF8342.424436886351
aF313470.6419732584
aF5767.668562144601
aF34521.025722325736
aF48585.19373006717
aF263589.03158625495
aF187579.84386089403
aF337.0691834499033
aF0.0
aF3627.1309394269115
aF28547.886777820855
aF2957.9235376765487
aF0.0
aF31992.850759606805
aF65793.0657930658
aF6147.54098360656
aF0.0
aF5106.22202609847
aF0.0
aF13323.599196933705
aF2011.3979215554803
aF1200.3841229193351
aF0.0
aF130924.17061611364
aF40789.47368421047
aF10280.062236052503
aF0.0
aF61408.707545019344
aF48721.278157285626
aF4292.29480737019
aF517555.0501969051
aF123112.1465295628
aF36780.93276445489
aF48323.131304422815
aF11262.824963357201
aF0.0
aF4753.282028066997
aF5557.309756867701
aF4201.6806722689125
aF1976.89232526468
aF10972.065713777401
aF28110.924187333803
aF122621.8787158147
aF266850.4264614102
aF0.0
aF3909.096932352741
aF184110.371075167
aF11189.14414950605
aF133.19126265317007
aF175036.27088500987
aF407197.5303421151
aF13212.7437844276
aF541756.0975609759
aF30389.92437659888
aF1301.1257566329107
aF21014.623578263207
aF3669.724770642198
aF8463.214345567298
aF154676.419428215
aF438.6542088871342
aF35252.427631276194
aF101458.48915482403
aF14082.15703941002
aF115497.82190651854
aF851.3657325292654
aF2482.349527708826
aF246292.17259778993
aF0.0
aF274656.7843005132
aF140582.24968489676
aF9284.787544599418
aF20246.707958153314
aF918.242415997823
aF54570.204588221175
aF139787.63898627687
aF52777.26517807711
aF24923.294784045283
aF5333.792154163799
aF166845.28448947793
aF56451.17516148298
aF197673.1542894422
aF24438.294479103108
aF12010.238235873214
aF320795.3834387821
aF8288.06456619587
aF286240.69570344174
aF95307.52916224819
aF31782.065834279183
aF1736.71413685307
aF21549.35900633509
aF4276.335601999638
aF1890.7050500122011
aF196812.37670023902
aF27499.310217971073
aF30373.60023783572
aF72371.52286657238
aF2253.1749283080694
aF80931.57050395533
aF11949.849810630803
aF14486.4461576722
aF21375.319326416804
aF19201.30399348
aF38614.80075901329
aF11504.288428945596
aF418866.6307488859
aF779.6257796257798
aF226622.19526986082
aF255658.24903573192
aF137985.24609989102
aF172358.68600177587
aF0.0
aF167769.135712728
aF111581.62185051909
aF46173.188747446235
aF15156.875017007293
aF144046.974555449
aF16947.442751941893
aF1820.6645425580302
aF437948.7729075127
aF18050.404904260995
aF163705.646558123
aF34225.2866992962
aF73242.44854317035
aF7252.774974772963
aF1708.5334318433709
aF35294.5894998596
aF1375.6878439219595
aF1314.0604467805495
aF61330.61432577109
aF118737.348178138
aF133.38075760270297
aF204.05664612496398
aF185855.900758709
aF5926.786751888439
aF123038.75968992202
aF9559.783622458495
aF680.5667264740458
aF190253.56576862113
aF13389.711064129706
aF25006.09310260781
aF58018.068887634116
aF22595.048031389484
asS'd__Bacteria.p__Firmicutes.c__Bacilli.o__Erysipelotrichales'
p85
(lp86
F11393.674232066403
aF4002.001000500252
aF1200.730879665883
aF6274.817393009461
aF184.07392408791392
aF14651.835154603797
aF8402.707539095925
aF39034.74745825001
aF195808.96132659417
aF1037.86277147799
aF1110.2629935465995
aF64374.88905981896
aF10746.3853067605
aF23692.127695136267
aF8226.772780112677
aF4873.432694582451
aF5696.032020936767
aF7972.350230414752
aF0.0
aF788.0220646178088
aF6290.377422645349
aF1094.2760942760901
aF5287.113236173048
aF2658.438167576551
aF4958.939976990519
aF9702.725020644091
aF10495.094684006393
aF2052.3345305284743
aF329.6956908773199
aF45434.126933196414
aF1370.318079893698
aF17587.327376117002
aF16566.921644009377
aF6717.785166587501
aF555.3627212773339
aF25833.924769340007
aF2106.6823965618955
aF16071.897139858309
aF2684.076895175921
aF33394.72663823185
aF6359.535606004577
aF307.25742026669906
aF2144.7721179624705
aF3549.00354900355
aF2107.72833723653
aF8558.71276959945
aF4980.14246989851
aF0.0
aF9125.752874612162
aF11942.675159235701
aF9763.124199743921
aF2904.3789097408394
aF18994.372037914687
aF12763.15789473679
aF17392.753945321205
aF0.0
aF18737.178025985824
aF9428.103652684473
aF9474.45561139029
aF0.0
aF10483.61182519285
aF3295.5715756951595
aF0.0
aF1967.1372367507502
aF844.356881508584
aF6382.978723404245
aF59267.445532049314
aF15159.004778381912
aF9357.290339586172
aF24731.629203487308
aF542.6819341184131
aF297.265160523187
aF0.0
aF3266.9501006936707
aF0.0
aF17364.4148430067
aF28865.611236757468
aF88.79417510211336
aF561.6137033743616
aF2241.2991077092206
aF10160.786065207634
aF1268.29268292683
aF8743.077225830024
aF1499.1231543814008
aF5091.1716916410915
aF12141.323443294894
aF4524.886877828055
aF10258.240042817
aF5176.119664868183
aF15693.313083897097
aF1308.9005235602103
aF34771.58207361434
aF271417.9192339391
aF851.3657325292654
aF1482.9620555143624
aF252.09024830889493
aF92918.49107443573
aF800.1347595384485
aF153.7089981247498
aF0.0
aF11814.916983292609
aF986.2603727384029
aF2242.062697681869
aF3105.278974256237
aF2814.1723565233406
aF2454.5669105499182
aF1548.5203028217495
aF8476.227591582227
aF2931.1187103077737
aF2718.277699249751
aF797.4107603546132
aF1624.3354991140018
aF764.7917680595152
aF1272.69905323607
aF61021.44594295814
aF1723.2237539766713
aF154.78278815395694
aF2936.6257223151997
aF748.2416321644137
aF2529.6633138589386
aF2439.6194193705815
aF4931.990447513241
aF2989.055458475117
aF1090.0802695471207
aF825.0825082508248
aF7117.984432609588
aF663.8269624384582
aF14365.939663053403
aF1678.68689380751
aF2085.3970074552903
aF3292.5835370823106
aF2419.3548387096794
aF1848.9034975091197
aF7444.776411813678
aF0.0
aF0.0
aF3056.546102903719
aF2600.072560164471
aF1716.4841669132888
aF13082.778306374896
aF25296.2128371011
aF1129.225774578303
aF2671.6957410026716
aF4353.859968978748
aF8537.042435347521
aF4438.615958841928
aF3565.46806250948
aF2786.4108884363927
aF3405.736774388859
aF643.341416340872
aF4287.09227966132
aF2886.9286287089017
aF189.20282542886005
aF6741.780568895463
aF12633.858741426999
aF72161.08054027006
aF797.8224141167636
aF4792.250828447619
aF3099.6963562753
aF8669.749244175708
aF6652.246663673839
aF664.562219637814
aF13015.688553166798
aF6325.5813953488405
aF1445.6258160790894
aF1546.7425601682896
aF633.9144215530905
aF7047.216349541934
aF15695.832317816206
aF1364.5774515339706
aF2908.943309430388
asS'd__Bacteria.p__Actinobacteriota'
p87
(lp88
F198614.52921338085
aF3001.5007503751926
aF366066.3012268336
aF6666.993480072555
aF6700.290836800056
aF98740.62821580836
aF28398.039368240792
aF544934.8740353595
aF14197.285479016466
aF300365.1739381126
aF45590.174172507075
aF29169.871605230495
aF15696.235508662261
aF484497.74360688607
aF17839.577930787837
aF20156.139105748738
aF761921.2562059804
aF6589.8617511520715
aF248544.57592937842
aF8580.684703616153
aF154071.74430465855
aF24789.56228956233
aF53284.90644108317
aF56491.811061001725
aF62482.643710080505
aF277497.9355904211
aF206403.5287854588
aF409985.8902001027
aF12825.162375127753
aF48514.406725277564
aF16277.717797525158
aF5889.52071486596
aF96746.06634695407
aF9465.970007464206
aF2221.4508851093406
aF13484.740951029102
aF204011.1232830535
aF467921.805300446
aF696118.9698948134
aF250581.62078324932
aF586925.9779634697
aF139802.1262213487
aF543342.2698838247
aF7985.257985257989
aF394437.9391100705
aF63060.59568640872
aF686187.9846182937
aF925989.5709883858
aF578828.2533309001
aF442633.2551123028
aF543493.918053777
aF5585.3440571939245
aF77902.84360189574
aF32543.859649122747
aF64514.33651922653
aF943405.3860698044
aF267289.71962616814
aF204143.8491503418
aF28475.71189279734
aF159742.63686283212
aF17553.020565552702
aF96660.2913049875
aF196180.70523320948
aF621345.3675846644
aF46767.98949244768
aF88501.58442734259
aF597063.4670034732
aF39915.96638655465
aF598910.5126740762
aF45430.28290137011
aF3961.578119064412
aF4112.168053904086
aF100166.42396505101
aF6399.641978071154
aF14708.80540647986
aF72978.1160799239
aF625937.3884061419
aF1553.898064286984
aF700753.4983853605
aF321140.1023385631
aF223500.07443799297
aF99756.09756097558
aF66936.5494363386
aF115715.33631272287
aF9207.438165733889
aF181143.8610189345
aF79059.8290598291
aF23727.75522947242
aF383515.3748300221
aF23240.830226885682
aF124569.93268511596
aF600126.8061534354
aF21231.505827871755
aF2554.0971975878
aF18472.549082820213
aF6386.286290491989
aF12546.311889525083
aF192116.56700075787
aF1321.8973838728514
aF948710.6714239379
aF25555.613386769437
aF5679.499387838391
aF12971.93417944505
aF6661.3242512270745
aF12732.976563941642
aF4720.320981826763
aF645.2167928423949
aF4920.109119251757
aF11887.314769581524
aF9568.337501359138
aF142220.55443501085
aF69895.64874975398
aF2850.587499130918
aF2979.97827099177
aF273454.1970668437
aF73833.51007423124
aF619.1311526158287
aF17051.375161830198
aF34169.70120217486
aF393242.1851472626
aF12015.125640400096
aF21908.420724742995
aF74266.53177595875
aF16351.20404320679
aF118694.01225836868
aF53359.278984022916
aF8353.15594401726
aF5615.776413739061
aF54339.71648843574
aF9957.770710599032
aF175582.7220863896
aF4269.449715370019
aF10733.911971650143
aF158005.58358230884
aF16956.86070686067
aF5821.710127349906
aF53707.88152245108
aF61615.67299552552
aF141935.4838709676
aF6137.012369172218
aF65639.31089627097
aF7551.6973674924
aF15024.359578815023
aF45715.52967427685
aF115145.96260358953
aF4993.4429536971575
aF17751.479289940835
aF115153.7884471118
aF5373.495799591309
aF19498.19369525411
aF315172.7340931018
aF7805.399625768515
aF946.0141271442984
aF36433.32101957882
aF192034.6528696904
aF52088.54427213608
aF6758.025154871408
aF16466.989548814727
aF46368.92712550606
aF71180.8643073092
aF3591.3969717993696
aF344520.13069723686
aF166182.45206275396
aF16372.093023255782
aF242352.17310203315
aF312936.9547732478
aF8795.562599049135
aF34922.87213217452
aF493541.3112356814
aF5928.853754940711
aF63523.20389663098
asS'd__Bacteria.p__Verrucomicrobiota.c__Lentisphaeria'
p89
(lp90
F0.0
aF0.0
aF0.0
aF0.0
aF0.0
aF0.0
aF0.0
aF0.0
aF0.0
aF0.0
aF0.0
aF0.0
aF0.0
aF0.0
aF0.0
aF0.0
aF0.0
aF0.0
aF0.0
aF0.0
aF0.0
aF0.0
aF0.0
aF0.0
aF158.68607926369623
aF0.0
aF0.0
aF0.0
aF0.0
aF0.0
aF0.0
aF0.0
aF0.0
aF0.0
aF0.0
aF0.0
aF0.0
aF0.0
aF0.0
aF0.0
aF0.0
aF0.0
aF0.0
aF0.0
aF0.0
aF0.0
aF0.0
aF0.0
aF0.0
aF0.0
aF0.0
aF0.0
aF0.0
aF0.0
aF0.0
aF0.0
aF0.0
aF0.0
aF0.0
aF0.0
aF0.0
aF0.0
aF0.0
aF0.0
aF0.0
aF0.0
aF0.0
aF0.0
aF0.0
aF0.0
aF0.0
aF3666.2703131193102
aF0.0
aF0.0
aF0.0
aF0.0
aF0.0
aF0.0
aF0.0
aF0.0
aF0.0
aF0.0
aF0.0
aF0.0
aF0.0
aF0.0
aF0.0
aF0.0
aF0.0
aF0.0
aF0.0
aF0.0
aF0.0
aF0.0
aF0.0
aF0.0
aF0.0
aF0.0
aF0.0
aF0.0
aF0.0
aF0.0
aF0.0
aF0.0
aF0.0
aF0.0
aF0.0
aF0.0
aF0.0
aF0.0
aF0.0
aF0.0
aF0.0
aF0.0
aF0.0
aF0.0
aF0.0
aF0.0
aF0.0
aF0.0
aF0.0
aF0.0
aF0.0
aF0.0
aF0.0
aF0.0
aF0.0
aF0.0
aF0.0
aF0.0
aF0.0
aF0.0
aF0.0
aF0.0
aF0.0
aF0.0
aF0.0
aF0.0
aF0.0
aF0.0
aF0.0
aF0.0
aF0.0
aF0.0
aF0.0
aF0.0
aF0.0
aF0.0
aF0.0
aF0.0
aF0.0
aF0.0
aF0.0
aF0.0
aF0.0
aF0.0
aF0.0
aF0.0
aF0.0
aF0.0
aF0.0
aF0.0
aF0.0
aF0.0
aF0.0
aF0.0
aF0.0
aF0.0
aF0.0
aF0.0
aF0.0
asS'd__Bacteria.p__Desulfobacterota.c__Desulfovibrionia'
p91
(lp92
F455.74696928265416
aF428.7858214821702
aF0.0
aF490.22010882886406
aF552.2217722637407
aF0.0
aF14315.723955496758
aF694.1325384835249
aF0.0
aF3805.49682875264
aF0.0
aF1065.025738122001
aF0.0
aF0.0
aF447.10721631047136
aF1182.8720132481703
aF0.0
aF9170.506912442403
aF0.0
aF0.0
aF0.0
aF2777.7777777777806
aF0.0
aF0.0
aF1547.1892728210455
aF0.0
aF304.2056430146778
aF769.6254489481779
aF0.0
aF577.5524610152094
aF56930.48750103811
aF203.08692120227505
aF0.0
aF7871.344235597476
aF3262.7559875043394
aF0.0
aF0.0
aF0.0
aF0.0
aF630.089181853431
aF1478.9617688382793
aF553.063356480059
aF4229.9672326482005
aF0.0
aF0.0
aF684.6970215679561
aF0.0
aF0.0
aF0.0
aF419.04123365739196
aF440.14084507042287
aF0.0
aF4146.919431279621
aF0.0
aF277.83951989331007
aF0.0
aF1595.6234328698463
aF1411.3927623779107
aF16226.968174204354
aF0.0
aF482.0051413881752
aF0.0
aF172.42865764290008
aF0.0
aF9803.921568627451
aF0.0
aF2368.1717713924904
aF0.0
aF131.792821684312
aF355.85077990629304
aF5318.28295436045
aF10404.28061831151
aF25483.669648429423
aF0.0
aF0.0
aF190.294957183635
aF0.0
aF0.0
aF7300.978143866705
aF1268.6598722882402
aF12617.23983921394
aF5658.53658536585
aF3823.339237018917
aF4016.518640040732
aF3502.4372630438716
aF1288.3076322467296
aF4985.754985754995
aF7760.58159760938
aF438.6542088871342
aF13346.219338211597
aF2543.006731488411
aF100.11012113324622
aF117.7347827793258
aF0.0
aF10961.02388858439
aF252.09024830889493
aF0.0
aF0.0
aF0.0
aF689.2637041842357
aF0.0
aF0.0
aF560.5156744204668
aF1502.5543423820486
aF322.9378114043181
aF2360.160490913378
aF0.0
aF925.5650818394386
aF379.9598328176745
aF4403.6098727846065
aF1125.7563675594504
aF5316.007088009455
aF2363.901828547591
aF155.20720161415503
aF0.0
aF9013.785790031818
aF3508.4098648230283
aF0.0
aF2394.3732229261186
aF0.0
aF121.98097096852908
aF986.3980895026482
aF1517.5204635335185
aF1090.0802695471207
aF412.5412541254129
aF0.0
aF442.5513082923052
aF0.0
aF248.69435463815
aF260.67462593191203
aF260.79869600652006
aF1185.9582542694498
aF0.0
aF146.93637654895397
aF0.0
aF9642.207398423285
aF6185.867113019429
aF1148.8692707703503
aF355.13465522343876
aF0.0
aF8214.000145380529
aF494.0362763780085
aF0.0
aF1823.1788620098491
aF0.0
aF1311.4092605669293
aF303.444090426339
aF0.0
aF0.0
aF2276.43885782155
aF0.0
aF855.3862603581935
aF0.0
aF0.0
aF3288.81402157783
aF687.8439219609797
aF0.0
aF1172.5720112159097
aF0.0
aF0.0
aF0.0
aF0.0
aF0.0
aF11162.790697674402
aF10305.913075918696
aF0.0
aF1743.2646592710012
aF1096.2336543731906
aF4338.289056787721
aF0.0
aF0.0
asS'd__Bacteria.p__Fusobacteriota'
p93
(lp94
F0.0
aF0.0
aF0.0
aF0.0
aF257.70349372307885
aF0.0
aF0.0
aF0.0
aF11357.82838321311
aF0.0
aF0.0
aF0.0
aF0.0
aF0.0
aF0.0
aF0.0
aF0.0
aF0.0
aF0.0
aF0.0
aF127.50765045902787
aF0.0
aF0.0
aF0.0
aF0.0
aF0.0
aF0.0
aF0.0
aF0.0
aF0.0
aF0.0
aF0.0
aF0.0
aF169.64103956029038
aF0.0
aF0.0
aF0.0
aF0.0
aF0.0
aF0.0
aF0.0
aF0.0
aF0.0
aF0.0
aF0.0
aF0.0
aF0.0
aF0.0
aF0.0
aF0.0
aF0.0
aF0.0
aF481.3388625592417
aF0.0
aF0.0
aF0.0
aF0.0
aF0.0
aF0.0
aF0.0
aF0.0
aF0.0
aF0.0
aF154.285273470647
aF249366.73233886898
aF0.0
aF0.0
aF0.0
aF0.0
aF0.0
aF0.0
aF0.0
aF0.0
aF0.0
aF0.0
aF0.0
aF0.0
aF0.0
aF0.0
aF5412.9487884298205
aF0.0
aF0.0
aF0.0
aF0.0
aF144.43040259974728
aF0.0
aF0.0
aF0.0
aF0.0
aF0.0
aF0.0
aF0.0
aF0.0
aF461.15643845335234
aF0.0
aF0.0
aF0.0
aF0.0
aF0.0
aF0.0
aF0.0
aF0.0
aF0.0
aF0.0
aF0.0
aF0.0
aF0.0
aF243.5697583787999
aF0.0
aF0.0
aF140.71954594493207
aF0.0
aF0.0
aF0.0
aF110.54609772274989
aF0.0
aF0.0
aF0.0
aF0.0
aF0.0
aF0.0
aF0.0
aF0.0
aF0.0
aF0.0
aF0.0
aF0.0
aF0.0
aF1803.03407112659
aF0.0
aF0.0
aF2988.614800759009
aF0.0
aF0.0
aF0.0
aF0.0
aF0.0
aF0.0
aF947.0257472625034
aF0.0
aF0.0
aF0.0
aF0.0
aF0.0
aF0.0
aF0.0
aF0.0
aF1768.2992176615567
aF0.0
aF0.0
aF0.0
aF0.0
aF15136.226034308806
aF0.0
aF0.0
aF110805.40270135095
aF0.0
aF0.0
aF0.0
aF0.0
aF0.0
aF0.0
aF0.0
aF0.0
aF279.7985450475659
aF0.0
aF237.71790808240917
aF0.0
aF0.0
aF0.0
aF0.0
asS'd__Bacteria.p__Proteobacteria.c__Alphaproteobacteria.o__Rhizobiales'
p95
(lp96
F0.0
aF0.0
aF0.0
aF0.0
aF2135.257519419799
aF882.0502768657815
aF0.0
aF1796.5783348985321
aF0.0
aF0.0
aF0.0
aF0.0
aF195.388823759281
aF626.7758649506935
aF0.0
aF236.57440264963307
aF923.6808682600163
aF1013.8248847926303
aF1027.3581674974296
aF569.127046668418
aF0.0
aF0.0
aF0.0
aF0.0
aF952.1164755821793
aF123.86457473162687
aF0.0
aF865.8286300667002
aF0.0
aF866.328691522813
aF747.4462253965618
aF0.0
aF594.5067575601447
aF101.78462373617444
aF0.0
aF0.0
aF0.0
aF393.5974809761222
aF0.0
aF242.34199302055063
aF0.0
aF0.0
aF0.0
aF0.0
aF0.0
aF136.939404313591
aF0.0
aF0.0
aF255.5210804891401
aF167.616493462957
aF400.1280409731117
aF0.0
aF0.0
aF0.0
aF111.13580795732403
aF0.0
aF0.0
aF0.0
aF0.0
aF0.0
aF361.50385604113114
aF9945.564219508607
aF0.0
aF0.0
aF0.0
aF135.80805794477092
aF126.30249447426601
aF0.0
aF307.51658393006204
aF0.0
aF0.0
aF0.0
aF0.0
aF0.0
aF132.5117604187371
aF95.1474785918173
aF0.0
aF0.0
aF0.0
aF0.0
aF0.0
aF0.0
aF365.46625059739677
aF0.0
aF144.43040259974728
aF0.0
aF251.3826043237812
aF446.01043664421695
aF87.73084177742693
aF92.04289198766617
aF448.7658937920721
aF0.0
aF745.653624269063
aF0.0
aF64.47661110932003
aF0.0
aF168.4068710003368
aF0.0
aF215.1925973746505
aF0.0
aF0.0
aF0.0
aF0.0
aF0.0
aF0.0
aF0.0
aF0.0
aF97.42790335151986
aF0.0
aF0.0
aF0.0
aF0.0
aF0.0
aF0.0
aF0.0
aF0.0
aF0.0
aF0.0
aF0.0
aF0.0
aF0.0
aF0.0
aF0.0
aF0.0
aF0.0
aF0.0
aF0.0
aF0.0
aF0.0
aF0.0
aF0.0
aF142.314990512334
aF0.0
aF0.0
aF0.0
aF0.0
aF0.0
aF0.0
aF0.0
aF0.0
aF0.0
aF0.0
aF157.1585730001571
aF0.0
aF0.0
aF0.0
aF0.0
aF0.0
aF0.0
aF0.0
aF928.8699939266191
aF0.0
aF0.0
aF0.0
aF1403.76208238078
aF312.65632816408186
aF0.0
aF0.0
aF0.0
aF0.0
aF0.0
aF166.140554909453
aF0.0
aF0.0
aF0.0
aF0.0
aF0.0
aF234.90721165139811
aF194.97928345113306
aF0.0
aF270.5993776214308
asS'd__Bacteria.p__Firmicutes.c__Bacilli.o__RF39'
p97
(lp98
F0.0
aF0.0
aF0.0
aF0.0
aF0.0
aF0.0
aF0.0
aF0.0
aF0.0
aF0.0
aF0.0
aF0.0
aF0.0
aF0.0
aF0.0
aF0.0
aF0.0
aF0.0
aF0.0
aF0.0
aF0.0
aF0.0
aF0.0
aF0.0
aF0.0
aF0.0
aF0.0
aF1603.3863519753706
aF0.0
aF0.0
aF0.0
aF0.0
aF0.0
aF542.8513265929296
aF0.0
aF0.0
aF0.0
aF0.0
aF0.0
aF0.0
aF0.0
aF0.0
aF0.0
aF0.0
aF0.0
aF0.0
aF0.0
aF0.0
aF0.0
aF0.0
aF0.0
aF0.0
aF0.0
aF0.0
aF0.0
aF0.0
aF0.0
aF0.0
aF0.0
aF0.0
aF0.0
aF0.0
aF0.0
aF0.0
aF0.0
aF0.0
aF0.0
aF0.0
aF0.0
aF0.0
aF542.6819341184131
aF0.0
aF0.0
aF0.0
aF0.0
aF0.0
aF0.0
aF0.0
aF0.0
aF0.0
aF0.0
aF0.0
aF0.0
aF0.0
aF0.0
aF0.0
aF0.0
aF0.0
aF0.0
aF0.0
aF0.0
aF0.0
aF0.0
aF0.0
aF0.0
aF0.0
aF0.0
aF0.0
aF0.0
aF0.0
aF312.28855462447325
aF0.0
aF0.0
aF0.0
aF0.0
aF0.0
aF0.0
aF0.0
aF0.0
aF1032.9455257149066
aF0.0
aF0.0
aF208.57957310714008
aF0.0
aF0.0
aF0.0
aF0.0
aF0.0
aF0.0
aF0.0
aF0.0
aF0.0
aF0.0
aF0.0
aF0.0
aF0.0
aF0.0
aF0.0
aF0.0
aF0.0
aF0.0
aF0.0
aF0.0
aF0.0
aF0.0
aF1091.570648878109
aF0.0
aF967.4688595960823
aF0.0
aF0.0
aF0.0
aF0.0
aF0.0
aF0.0
aF0.0
aF0.0
aF0.0
aF0.0
aF0.0
aF0.0
aF0.0
aF0.0
aF0.0
aF0.0
aF0.0
aF0.0
aF0.0
aF0.0
aF0.0
aF0.0
aF0.0
aF0.0
aF0.0
aF0.0
aF0.0
aF0.0
aF0.0
aF0.0
aF0.0
aF0.0
aF5411.987552428626
asS'd__Archaea.p__Euryarchaeota.c__Methanobacteria'
p99
(lp100
F0.0
aF0.0
aF0.0
aF0.0
aF0.0
aF0.0
aF0.0
aF0.0
aF0.0
aF0.0
aF0.0
aF0.0
aF0.0
aF0.0
aF0.0
aF0.0
aF0.0
aF368.6635944700461
aF114.15090749971495
aF56650.03064530249
aF0.0
aF547.1380471380471
aF0.0
aF0.0
aF6426.786210179712
aF0.0
aF0.0
aF128.27090815802964
aF0.0
aF0.0
aF0.0
aF0.0
aF0.0
aF2748.1848408767055
aF0.0
aF0.0
aF0.0
aF0.0
aF0.0
aF0.0
aF0.0
aF0.0
aF0.0
aF0.0
aF0.0
aF0.0
aF4286.7049107987095
aF0.0
aF0.0
aF0.0
aF9362.99615877081
aF186.17813523979694
aF0.0
aF0.0
aF0.0
aF0.0
aF0.0
aF0.0
aF0.0
aF0.0
aF0.0
aF0.0
aF0.0
aF1658.56668980946
aF1219.62660662351
aF0.0
aF81654.56267761292
aF0.0
aF0.0
aF0.0
aF0.0
aF0.0
aF0.0
aF0.0
aF0.0
aF0.0
aF0.0
aF0.0
aF0.0
aF5159.216813972172
aF0.0
aF0.0
aF295549.7455792638
aF0.0
aF7329.842931937174
aF13585.789576420093
aF0.0
aF0.0
aF0.0
aF0.0
aF0.0
aF0.0
aF0.0
aF0.0
aF0.0
aF0.0
aF0.0
aF0.0
aF0.0
aF0.0
aF0.0
aF136.03591348115899
aF0.0
aF0.0
aF0.0
aF0.0
aF0.0
aF0.0
aF0.0
aF18919.21278677828
aF0.0
aF0.0
aF0.0
aF0.0
aF0.0
aF574.4079179922235
aF0.0
aF0.0
aF0.0
aF0.0
aF0.0
aF0.0
aF0.0
aF0.0
aF0.0
aF0.0
aF0.0
aF0.0
aF0.0
aF0.0
aF0.0
aF0.0
aF0.0
aF244.89396091492395
aF0.0
aF1273.499090357789
aF1892.1475875118297
aF0.0
aF0.0
aF0.0
aF0.0
aF7269.390923847834
aF0.0
aF0.0
aF0.0
aF0.0
aF0.0
aF0.0
aF0.0
aF0.0
aF0.0
aF0.0
aF0.0
aF0.0
aF0.0
aF187.59379689844891
aF0.0
aF3211.827682895739
aF0.0
aF0.0
aF0.0
aF0.0
aF0.0
aF744.1860465116281
aF0.0
aF0.0
aF0.0
aF9396.288466055914
aF0.0
aF0.0
aF3720.7414422946777
asS'd__Bacteria.p__Firmicutes.c__Clostridia.o__Clostridia_UCG_014'
p101
(lp102
F35001.36724090781
aF0.0
aF0.0
aF0.0
aF0.0
aF0.0
aF0.0
aF0.0
aF0.0
aF0.0
aF0.0
aF0.0
aF0.0
aF0.0
aF0.0
aF0.0
aF0.0
aF0.0
aF0.0
aF22020.838805708794
aF0.0
aF0.0
aF77559.65242977325
aF0.0
aF0.0
aF0.0
aF0.0
aF0.0
aF0.0
aF0.0
aF0.0
aF487.40861088545915
aF0.0
aF65006.44635950331
aF0.0
aF0.0
aF0.0
aF0.0
aF0.0
aF0.0
aF0.0
aF0.0
aF0.0
aF0.0
aF0.0
aF0.0
aF0.0
aF0.0
aF0.0
aF0.0
aF0.0
aF0.0
aF0.0
aF0.0
aF68237.38608579682
aF0.0
aF0.0
aF0.0
aF4449.329983249582
aF0.0
aF4619.215938303343
aF0.0
aF0.0
aF0.0
aF0.0
aF44409.23494794017
aF0.0
aF0.0
aF0.0
aF711.7015598125852
aF1519.50941553156
aF5053.507728894181
aF0.0
aF0.0
aF0.0
aF0.0
aF0.0
aF0.0
aF0.0
aF0.0
aF0.0
aF0.0
aF0.0
aF0.0
aF0.0
aF0.0
aF0.0
aF0.0
aF0.0
aF0.0
aF0.0
aF0.0
aF0.0
aF0.0
aF0.0
aF0.0
aF0.0
aF0.0
aF0.0
aF0.0
aF6714.203924426175
aF0.0
aF32389.79861472548
aF0.0
aF0.0
aF2312.957281095108
aF774.2601514108738
aF11155.494933748994
aF1302.7194268034516
aF103348.9181254761
aF844.3172756695903
aF0.0
aF8968.921643607044
aF248.331522582648
aF0.0
aF1237.186284906331
aF0.0
aF0.0
aF28582.830348680585
aF0.0
aF1402.7811661380808
aF0.0
aF0.0
aF5797.245069864243
aF0.0
aF0.0
aF829.7837030480723
aF0.0
aF0.0
aF41134.45597205571
aF0.0
aF0.0
aF0.0
aF0.0
aF0.0
aF0.0
aF654.9741649079398
aF0.0
aF0.0
aF0.0
aF8214.000145380529
aF0.0
aF0.0
aF0.0
aF0.0
aF3883.788963986678
aF417.235624336216
aF0.0
aF0.0
aF13114.2673331024
aF0.0
aF5025.394279604383
aF0.0
aF184.7063169560401
aF5173.8659607748805
aF0.0
aF0.0
aF48483.30359418809
aF0.0
aF0.0
aF0.0
aF0.0
aF0.0
aF6015.5038759689905
aF0.0
aF0.0
aF5625.990491283685
aF4541.539425260362
aF0.0
aF10681.347637869405
aF18739.006900284086
asS'd__Bacteria.p__Bacteroidota.c__Bacteroidia'
p103
(lp104
F24428.037553550308
aF56957.04995354823
aF12216.13155833988
aF92700.62257953822
aF9903.177115929755
aF69534.9634929191
aF15171.555278923252
aF22130.578579886467
aF39638.821057413836
aF343340.380549683
aF633890.7778780098
aF27690.669191172125
aF525335.417480787
aF250.7103459802776
aF146114.6382902621
aF360397.4449964511
aF16664.742331524467
aF80000.00000000003
aF0.0
aF559232.9918571048
aF27626.65759945594
aF349537.0370370371
aF325824.1000413769
aF155566.1049133631
aF75812.27436823105
aF454.1701073492976
aF106167.76941212293
aF26680.348896870128
aF8044.574857406608
aF8342.424436886351
aF313470.6419732584
aF5767.668562144601
aF34521.025722325736
aF48585.19373006717
aF263589.03158625495
aF187579.84386089403
aF337.0691834499033
aF0.0
aF3627.1309394269115
aF28547.886777820855
aF2957.9235376765487
aF0.0
aF31992.850759606805
aF65793.0657930658
aF6147.54098360656
aF0.0
aF5106.22202609847
aF0.0
aF13323.599196933705
aF2011.3979215554803
aF1200.3841229193351
aF0.0
aF130924.17061611364
aF40789.47368421047
aF10280.062236052503
aF0.0
aF61408.707545019344
aF48721.278157285626
aF4292.29480737019
aF517555.0501969051
aF123112.1465295628
aF36780.93276445489
aF48323.131304422815
aF11262.824963357201
aF0.0
aF4753.282028066997
aF5557.309756867701
aF4201.6806722689125
aF1976.89232526468
aF10972.065713777401
aF28110.924187333803
aF122621.8787158147
aF266850.4264614102
aF0.0
aF3909.096932352741
aF184110.371075167
aF11189.14414950605
aF133.19126265317007
aF175036.27088500987
aF407197.5303421151
aF13212.7437844276
aF541756.0975609759
aF30389.92437659888
aF1301.1257566329107
aF21014.623578263207
aF3669.724770642198
aF8463.214345567298
aF154676.419428215
aF438.6542088871342
aF35252.427631276194
aF101458.48915482403
aF14082.15703941002
aF115497.82190651854
aF851.3657325292654
aF2482.349527708826
aF246292.17259778993
aF0.0
aF274656.7843005132
aF140582.24968489676
aF9284.787544599418
aF20246.707958153314
aF918.242415997823
aF54570.204588221175
aF139787.63898627687
aF52777.26517807711
aF24923.294784045283
aF5333.792154163799
aF166845.28448947793
aF56451.17516148298
aF197673.1542894422
aF24438.294479103108
aF12010.238235873214
aF320795.3834387821
aF8288.06456619587
aF286240.69570344174
aF95307.52916224819
aF31782.065834279183
aF1736.71413685307
aF21549.35900633509
aF4276.335601999638
aF1890.7050500122011
aF196812.37670023902
aF27499.310217971073
aF30373.60023783572
aF72371.52286657238
aF2253.1749283080694
aF80931.57050395533
aF11949.849810630803
aF14486.4461576722
aF21375.319326416804
aF19201.30399348
aF38614.80075901329
aF11504.288428945596
aF418866.6307488859
aF779.6257796257798
aF226622.19526986082
aF255658.24903573192
aF137985.24609989102
aF172358.68600177587
aF0.0
aF167769.135712728
aF111581.62185051909
aF46173.188747446235
aF15156.875017007293
aF144046.974555449
aF16947.442751941893
aF1820.6645425580302
aF437948.7729075127
aF18050.404904260995
aF163705.646558123
aF34225.2866992962
aF73242.44854317035
aF7252.774974772963
aF1708.5334318433709
aF35294.5894998596
aF1375.6878439219595
aF1314.0604467805495
aF61330.61432577109
aF118737.348178138
aF133.38075760270297
aF204.05664612496398
aF185855.900758709
aF5926.786751888439
aF123038.75968992202
aF9559.783622458495
aF680.5667264740458
aF190253.56576862113
aF13389.711064129706
aF25006.09310260781
aF58018.068887634116
aF22595.048031389484
asS'd__Bacteria.p__Synergistota'
p105
(lp106
F2552.183027982861
aF0.0
aF0.0
aF0.0
aF0.0
aF0.0
aF13459.892632070365
aF0.0
aF0.0
aF0.0
aF0.0
aF0.0
aF0.0
aF0.0
aF0.0
aF0.0
aF0.0
aF783.4101382488483
aF0.0
aF0.0
aF0.0
aF1809.7643097643104
aF0.0
aF0.0
aF753.7588765025586
aF0.0
aF0.0
aF0.0
aF0.0
aF0.0
aF0.0
aF0.0
aF0.0
aF135.7128316482319
aF624.7830614370008
aF0.0
aF0.0
aF0.0
aF0.0
aF0.0
aF0.0
aF0.0
aF0.0
aF0.0
aF0.0
aF0.0
aF189.119334299943
aF0.0
aF0.0
aF0.0
aF0.0
aF0.0
aF0.0
aF0.0
aF0.0
aF0.0
aF410.3031684522456
aF0.0
aF471.10552763819146
aF0.0
aF0.0
aF0.0
aF258.6429864643501
aF0.0
aF2204.70963505019
aF0.0
aF252.60498894853203
aF0.0
aF0.0
aF0.0
aF0.0
aF0.0
aF5980.861244019145
aF0.0
aF0.0
aF0.0
aF0.0
aF0.0
aF1825.2445359666788
aF0.0
aF0.0
aF0.0
aF0.0
aF989.9869887424346
aF3177.46885719444
aF273.27737653718486
aF0.0
aF0.0
aF0.0
aF0.0
aF0.0
aF2402.6429071979237
aF353.20434833797736
aF0.0
aF0.0
aF0.0
aF0.0
aF0.0
aF92.22539887485017
aF0.0
aF0.0
aF0.0
aF0.0
aF0.0
aF0.0
aF0.0
aF0.0
aF0.0
aF0.0
aF0.0
aF0.0
aF0.0
aF208.57957310714008
aF0.0
aF0.0
aF0.0
aF154.78278815395694
aF0.0
aF0.0
aF0.0
aF0.0
aF0.0
aF0.0
aF0.0
aF0.0
aF0.0
aF0.0
aF0.0
aF0.0
aF0.0
aF0.0
aF0.0
aF0.0
aF0.0
aF0.0
aF485.14251061249166
aF2183.2472163597995
aF0.0
aF0.0
aF0.0
aF0.0
aF0.0
aF125.72685840012608
aF0.0
aF0.0
aF0.0
aF0.0
aF0.0
aF0.0
aF0.0
aF0.0
aF0.0
aF0.0
aF0.0
aF0.0
aF0.0
aF0.0
aF0.0
aF0.0
aF0.0
aF0.0
aF0.0
aF0.0
aF0.0
aF0.0
aF0.0
aF0.0
aF391.51201941899615
aF0.0
aF0.0
aF0.0
asS'd__Bacteria.p__Firmicutes.c__Incertae_Sedis.o__DTU014'
p107
(lp108
F0.0
aF0.0
aF0.0
aF0.0
aF0.0
aF0.0
aF0.0
aF449.14458372463304
aF0.0
aF0.0
aF0.0
aF0.0
aF0.0
aF0.0
aF0.0
aF0.0
aF0.0
aF0.0
aF0.0
aF0.0
aF0.0
aF0.0
aF0.0
aF0.0
aF0.0
aF0.0
aF0.0
aF0.0
aF0.0
aF0.0
aF0.0
aF0.0
aF0.0
aF0.0
aF0.0
aF0.0
aF0.0
aF0.0
aF0.0
aF0.0
aF0.0
aF0.0
aF0.0
aF0.0
aF0.0
aF0.0
aF0.0
aF0.0
aF0.0
aF0.0
aF0.0
aF0.0
aF0.0
aF0.0
aF0.0
aF0.0
aF0.0
aF0.0
aF0.0
aF0.0
aF0.0
aF0.0
aF0.0
aF0.0
aF0.0
aF0.0
aF0.0
aF0.0
aF0.0
aF0.0
aF0.0
aF743.1629013079669
aF0.0
aF0.0
aF0.0
aF0.0
aF0.0
aF0.0
aF0.0
aF0.0
aF0.0
aF0.0
aF0.0
aF0.0
aF0.0
aF0.0
aF0.0
aF0.0
aF0.0
aF0.0
aF0.0
aF0.0
aF0.0
aF0.0
aF0.0
aF0.0
aF0.0
aF0.0
aF0.0
aF0.0
aF0.0
aF0.0
aF0.0
aF0.0
aF0.0
aF0.0
aF0.0
aF0.0
aF0.0
aF0.0
aF0.0
aF0.0
aF0.0
aF0.0
aF0.0
aF0.0
aF0.0
aF0.0
aF0.0
aF0.0
aF0.0
aF0.0
aF0.0
aF0.0
aF0.0
aF0.0
aF0.0
aF0.0
aF0.0
aF0.0
aF0.0
aF0.0
aF0.0
aF0.0
aF0.0
aF0.0
aF363.87453605996694
aF0.0
aF0.0
aF0.0
aF0.0
aF0.0
aF0.0
aF0.0
aF0.0
aF0.0
aF0.0
aF0.0
aF0.0
aF0.0
aF0.0
aF0.0
aF0.0
aF0.0
aF0.0
aF0.0
aF0.0
aF0.0
aF0.0
aF0.0
aF0.0
aF0.0
aF0.0
aF0.0
aF0.0
aF0.0
aF0.0
aF0.0
aF0.0
aF0.0
aF0.0
asS'd__Bacteria.p__Proteobacteria.c__Alphaproteobacteria.o__Caulobacterales'
p109
(lp110
F0.0
aF0.0
aF0.0
aF0.0
aF404.9626329934098
aF98.00558631842014
aF0.0
aF326.6506063451881
aF0.0
aF0.0
aF0.0
aF0.0
aF130.259215839521
aF167.14023065351873
aF0.0
aF0.0
aF192.43351422083668
aF230.41474654377907
aF76.10060499980979
aF0.0
aF0.0
aF0.0
aF0.0
aF0.0
aF119.01455944777267
aF0.0
aF0.0
aF0.0
aF0.0
aF0.0
aF166.09916119923585
aF0.0
aF0.0
aF0.0
aF0.0
aF0.0
aF0.0
aF0.0
aF0.0
aF0.0
aF0.0
aF0.0
aF0.0
aF0.0
aF0.0
aF0.0
aF0.0
aF0.0
aF0.0
aF83.80824673147839
aF160.05121638924467
aF0.0
aF0.0
aF0.0
aF0.0
aF0.0
aF0.0
aF0.0
aF0.0
aF0.0
aF0.0
aF2265.7054582904198
aF0.0
aF0.0
aF0.0
aF0.0
aF0.0
aF0.0
aF0.0
aF0.0
aF0.0
aF0.0
aF0.0
aF0.0
aF0.0
aF0.0
aF0.0
aF0.0
aF0.0
aF0.0
aF74.43799315170465
aF0.0
aF84.33836552247614
aF0.0
aF0.0
aF0.0
aF0.0
aF0.0
aF0.0
aF0.0
aF0.0
aF0.0
aF196.2246379655433
aF0.0
aF0.0
aF0.0
aF0.0
aF0.0
aF0.0
aF0.0
aF0.0
aF0.0
aF0.0
aF0.0
aF0.0
aF0.0
aF0.0
aF0.0
aF0.0
aF0.0
aF0.0
aF0.0
aF0.0
aF0.0
aF0.0
aF0.0
aF0.0
aF0.0
aF0.0
aF0.0
aF0.0
aF0.0
aF0.0
aF0.0
aF0.0
aF0.0
aF0.0
aF0.0
aF0.0
aF0.0
aF0.0
aF0.0
aF0.0
aF0.0
aF0.0
aF0.0
aF0.0
aF0.0
aF0.0
aF0.0
aF0.0
aF0.0
aF220.02200220022013
aF0.0
aF0.0
aF0.0
aF0.0
aF0.0
aF0.0
aF0.0
aF0.0
aF0.0
aF0.0
aF0.0
aF360.967392612201
aF0.0
aF0.0
aF0.0
aF0.0
aF0.0
aF0.0
aF0.0
aF0.0
aF0.0
aF0.0
aF0.0
aF0.0
aF0.0
aF0.0
aF0.0
aF0.0
asS'd__Bacteria.p__Firmicutes.c__Clostridia.o__Clostridia'
p111
(lp112
F0.0
aF0.0
aF0.0
aF0.0
aF0.0
aF0.0
aF0.0
aF775.7951900698212
aF0.0
aF0.0
aF0.0
aF0.0
aF0.0
aF0.0
aF0.0
aF0.0
aF0.0
aF0.0
aF0.0
aF2320.2871902635493
aF0.0
aF0.0
aF0.0
aF0.0
aF753.7588765025586
aF0.0
aF0.0
aF0.0
aF0.0
aF0.0
aF0.0
aF0.0
aF0.0
aF0.0
aF0.0
aF0.0
aF0.0
aF0.0
aF0.0
aF0.0
aF0.0
aF0.0
aF0.0
aF0.0
aF0.0
aF0.0
aF0.0
aF0.0
aF0.0
aF0.0
aF0.0
aF0.0
aF0.0
aF0.0
aF0.0
aF0.0
aF0.0
aF0.0
aF0.0
aF0.0
aF0.0
aF0.0
aF0.0
aF0.0
aF0.0
aF0.0
aF94.72687085569943
aF0.0
aF0.0
aF0.0
aF0.0
aF0.0
aF0.0
aF0.0
aF0.0
aF0.0
aF0.0
aF0.0
aF0.0
aF0.0
aF0.0
aF0.0
aF0.0
aF0.0
aF0.0
aF0.0
aF0.0
aF0.0
aF0.0
aF0.0
aF261.7801047120421
aF0.0
aF0.0
aF0.0
aF0.0
aF0.0
aF0.0
aF0.0
aF0.0
aF0.0
aF0.0
aF0.0
aF0.0
aF0.0
aF0.0
aF0.0
aF0.0
aF0.0
aF0.0
aF0.0
aF0.0
aF0.0
aF0.0
aF0.0
aF0.0
aF0.0
aF0.0
aF0.0
aF0.0
aF0.0
aF0.0
aF0.0
aF0.0
aF0.0
aF0.0
aF0.0
aF0.0
aF0.0
aF0.0
aF0.0
aF0.0
aF0.0
aF0.0
aF0.0
aF0.0
aF0.0
aF0.0
aF0.0
aF0.0
aF0.0
aF0.0
aF0.0
aF0.0
aF0.0
aF0.0
aF0.0
aF0.0
aF0.0
aF0.0
aF0.0
aF0.0
aF0.0
aF0.0
aF0.0
aF0.0
aF0.0
aF0.0
aF1325.5161865918897
aF0.0
aF0.0
aF0.0
aF0.0
aF0.0
aF0.0
aF0.0
aF0.0
aF0.0
aF0.0
aF0.0
aF0.0
aF0.0
asS'd__Bacteria.p__Campilobacterota.c__Campylobacteria.o__Campylobacterales'
p113
(lp114
F0.0
aF0.0
aF0.0
aF0.0
aF0.0
aF0.0
aF0.0
aF163.32530317259355
aF0.0
aF0.0
aF0.0
aF0.0
aF0.0
aF0.0
aF0.0
aF0.0
aF153.94681137666956
aF0.0
aF0.0
aF0.0
aF0.0
aF0.0
aF0.0
aF0.0
aF79.34303963184831
aF0.0
aF0.0
aF0.0
aF0.0
aF641.724956683565
aF0.0
aF0.0
aF158.5351353493714
aF0.0
aF0.0
aF0.0
aF0.0
aF0.0
aF0.0
aF0.0
aF0.0
aF0.0
aF0.0
aF0.0
aF0.0
aF0.0
aF0.0
aF0.0
aF0.0
aF0.0
aF0.0
aF0.0
aF0.0
aF0.0
aF0.0
aF0.0
aF0.0
aF0.0
aF0.0
aF0.0
aF0.0
aF735.6186552890978
aF0.0
aF0.0
aF0.0
aF0.0
aF0.0
aF0.0
aF0.0
aF0.0
aF0.0
aF0.0
aF0.0
aF0.0
aF0.0
aF0.0
aF0.0
aF0.0
aF0.0
aF0.0
aF0.0
aF0.0
aF0.0
aF0.0
aF0.0
aF0.0
aF0.0
aF0.0
aF0.0
aF0.0
aF0.0
aF0.0
aF0.0
aF0.0
aF0.0
aF0.0
aF0.0
aF0.0
aF0.0
aF0.0
aF0.0
aF0.0
aF0.0
aF0.0
aF0.0
aF0.0
aF0.0
aF0.0
aF0.0
aF0.0
aF0.0
aF0.0
aF0.0
aF0.0
aF0.0
aF0.0
aF0.0
aF0.0
aF0.0
aF0.0
aF0.0
aF0.0
aF0.0
aF0.0
aF0.0
aF0.0
aF0.0
aF0.0
aF0.0
aF0.0
aF0.0
aF0.0
aF0.0
aF0.0
aF0.0
aF0.0
aF0.0
aF0.0
aF0.0
aF0.0
aF0.0
aF0.0
aF0.0
aF0.0
aF0.0
aF0.0
aF0.0
aF0.0
aF0.0
aF0.0
aF0.0
aF0.0
aF0.0
aF0.0
aF0.0
aF0.0
aF0.0
aF0.0
aF0.0
aF0.0
aF0.0
aF0.0
aF0.0
aF0.0
aF0.0
aF0.0
aF0.0
aF0.0
aF0.0
aF0.0
aF0.0
asS'd__Bacteria.p__Firmicutes.c__Clostridia.o__Clostridiales'
p115
(lp116
F1002.6433324218403
aF1071.9645537054205
aF0.0
aF0.0
aF0.0
aF3087.175969030232
aF1011.4370185948801
aF5308.072353109304
aF12266.45465387021
aF2421.6798001153197
aF0.0
aF6685.994911543706
aF5014.979809821551
aF292.495403643657
aF0.0
aF1040.9273716583903
aF63233.65277296699
aF1843.3179723502305
aF114.15090749971495
aF218.89501794939096
aF9563.07378442705
aF0.0
aF3723.9667141740583
aF0.0
aF0.0
aF1568.9512799339386
aF0.0
aF7792.457670600302
aF1714.4175925620696
aF67445.29294744272
aF0.0
aF0.0
aF7015.179739209699
aF135.7128316482319
aF0.0
aF0.0
aF0.0
aF0.0
aF0.0
aF0.0
aF0.0
aF0.0
aF0.0
aF2730.00273000273
aF878.220140515222
aF0.0
aF0.0
aF0.0
aF146.01204599379406
aF4693.261816962789
aF0.0
aF14521.894548704196
aF16846.860189573465
aF131.5789473684209
aF2278.2840631251406
aF153.30369461904
aF957.3740597219057
aF4685.823971094682
aF34704.77386934674
aF0.0
aF73746.78663239075
aF0.0
aF0.0
aF192.85659183830901
aF281.452293836195
aF54413.76188320506
aF0.0
aF3130.664030318012
aF0.0
aF0.0
aF13512.780159548502
aF247.72096710265566
aF8269.190763469946
aF313.26918773774906
aF5035.446895912015
aF0.0
aF0.0
aF0.0
aF0.0
aF0.0
aF7257.7043322912
aF0.0
aF1124.5115402996792
aF141.42671267749108
aF2671.962448095325
aF1327.3472574663292
aF0.0
aF15521.1631952188
aF87.73084177742693
aF1656.7720557779896
aF1570.6806282722505
aF266.96032302199063
aF7770.495663435501
aF0.0
aF13282.181888519952
aF1722.6166967774495
aF2147.1876052542966
aF0.0
aF0.0
aF0.0
aF0.0
aF1224.32322133043
aF2402.2100332305686
aF2854.8532505258872
aF0.0
aF4578.711352371956
aF47918.10048176189
aF7209.664848012467
aF2008.3591163219928
aF380.5588778949652
aF1970.0736432290407
aF3002.5595589683035
aF0.0
aF0.0
aF51993.514628933546
aF4683.633792859674
aF670.7254153338147
aF347.342827370615
aF146156.53214944893
aF0.0
aF7440.839229080265
aF622.9882670543042
aF0.0
aF13229.610544049208
aF1768.0339462517697
aF358.45964768537493
aF221.27565414615307
aF7574.768185973622
aF0.0
aF1668.3176059642403
aF0.0
aF142.314990512334
aF0.0
aF391.8303374638779
aF0.0
aF1030.9278350515494
aF4293.7195255075985
aF4232.676260732862
aF177.5673276117189
aF19314.938154138894
aF1889.94693610526
aF705.7661091114403
aF251.4537168002512
aF0.0
aF0.0
aF15535.155855946694
aF69905.93233196781
aF1286.0357946629513
aF0.0
aF1930.02424902262
aF3858.3830516951907
aF374.2314889067092
aF441.4732593340062
aF251754.71001108215
aF401.074880680223
aF25762.881440720386
aF207199.1740191479
aF1733.3673209278595
aF2340.58704453441
aF634625.6446736619
aF15263.437130147297
aF35830.9796754721
aF11679.256246368397
aF4093.0232558139505
aF0.0
aF0.0
aF9191.759112519816
aF12058.570198105104
aF58591.274677065616
aF76416.33728590253
aF82397.51048572584
asS'd__Bacteria.p__Desulfobacterota'
p117
(lp118
F455.74696928265416
aF428.7858214821702
aF0.0
aF490.22010882886406
aF552.2217722637407
aF0.0
aF14315.723955496758
aF694.1325384835249
aF0.0
aF3805.49682875264
aF0.0
aF1065.025738122001
aF0.0
aF0.0
aF447.10721631047136
aF1182.8720132481703
aF0.0
aF9170.506912442403
aF0.0
aF0.0
aF0.0
aF2777.7777777777806
aF0.0
aF0.0
aF1547.1892728210455
aF0.0
aF304.2056430146778
aF769.6254489481779
aF0.0
aF577.5524610152094
aF56930.48750103811
aF203.08692120227505
aF0.0
aF7871.344235597476
aF3262.7559875043394
aF0.0
aF0.0
aF0.0
aF0.0
aF630.089181853431
aF1478.9617688382793
aF553.063356480059
aF4229.9672326482005
aF0.0
aF0.0
aF684.6970215679561
aF0.0
aF0.0
aF0.0
aF419.04123365739196
aF440.14084507042287
aF0.0
aF4146.919431279621
aF0.0
aF277.83951989331007
aF0.0
aF1595.6234328698463
aF1411.3927623779107
aF16226.968174204354
aF0.0
aF482.0051413881752
aF0.0
aF172.42865764290008
aF0.0
aF9803.921568627451
aF0.0
aF2368.1717713924904
aF0.0
aF131.792821684312
aF355.85077990629304
aF5318.28295436045
aF10404.28061831151
aF25483.669648429423
aF0.0
aF0.0
aF190.294957183635
aF0.0
aF0.0
aF7300.978143866705
aF1268.6598722882402
aF12617.23983921394
aF5658.53658536585
aF3823.339237018917
aF4016.518640040732
aF3502.4372630438716
aF1288.3076322467296
aF4985.754985754995
aF7760.58159760938
aF438.6542088871342
aF13346.219338211597
aF2543.006731488411
aF100.11012113324622
aF117.7347827793258
aF0.0
aF10961.02388858439
aF252.09024830889493
aF0.0
aF0.0
aF0.0
aF689.2637041842357
aF0.0
aF0.0
aF560.5156744204668
aF1502.5543423820486
aF322.9378114043181
aF2360.160490913378
aF0.0
aF925.5650818394386
aF379.9598328176745
aF4403.6098727846065
aF1125.7563675594504
aF5316.007088009455
aF2363.901828547591
aF155.20720161415503
aF0.0
aF9013.785790031818
aF3508.4098648230283
aF0.0
aF2394.3732229261186
aF0.0
aF121.98097096852908
aF986.3980895026482
aF1517.5204635335185
aF1090.0802695471207
aF412.5412541254129
aF0.0
aF442.5513082923052
aF0.0
aF248.69435463815
aF260.67462593191203
aF260.79869600652006
aF1185.9582542694498
aF0.0
aF146.93637654895397
aF0.0
aF9642.207398423285
aF6185.867113019429
aF1148.8692707703503
aF355.13465522343876
aF0.0
aF8214.000145380529
aF494.0362763780085
aF0.0
aF1823.1788620098491
aF0.0
aF1311.4092605669293
aF303.444090426339
aF0.0
aF0.0
aF2276.43885782155
aF0.0
aF855.3862603581935
aF0.0
aF0.0
aF3288.81402157783
aF687.8439219609797
aF0.0
aF1172.5720112159097
aF0.0
aF0.0
aF0.0
aF0.0
aF0.0
aF11162.790697674402
aF10305.913075918696
aF0.0
aF1743.2646592710012
aF1096.2336543731906
aF4338.289056787721
aF0.0
aF0.0
asS'd__Bacteria.p__Actinobacteriota.c__Coriobacteriia'
p119
(lp120
F141646.15805304906
aF929.0359465447013
aF16027.146959018544
aF6176.773371243691
aF4528.218532562678
aF10290.586563434139
aF15716.175212012711
aF255277.4488587639
aF11641.774092793508
aF1921.9680953296202
aF2498.0917354798394
aF21833.027631501118
aF3516.9988276670597
aF10822.329934815283
aF2772.0647411249224
aF3217.4118760350107
aF472539.7375206866
aF6036.866359447002
aF0.0
aF4990.806409246128
aF595.0357021421281
aF2988.2154882154905
aF5654.912417819867
aF12152.860194635705
aF52326.734637203925
aF74690.33856317082
aF8289.603772149965
aF43612.108773730084
aF7912.696581055678
aF10010.909324263623
aF11004.069429449411
aF4833.468724614131
aF24176.608140779186
aF5496.369681753411
aF1388.4068031933396
aF7452.093683463451
aF16684.92458077021
aF6887.955917082134
aF54479.50671019222
aF44930.20550601003
aF279745.6185757599
aF3195.4771707736704
aF113077.15221924303
aF4845.75484575485
aF4683.840749414519
aF2396.4395754878497
aF67263.4432326798
aF117800.42664138408
aF98704.14309180513
aF4525.64532349983
aF282050.25608194614
aF0.0
aF20401.36255924173
aF32105.26315789468
aF18615.247832851706
aF0.0
aF67654.43355368136
aF8581.267995257724
aF3611.8090452261345
aF18192.911420489218
aF10684.447300771208
aF85508.31249080478
aF128976.63591688903
aF29044.2027308493
aF44141.1014166432
aF3485.7401539157977
aF32996.52668140201
aF37444.38952051412
aF11465.975486535202
aF22952.375303955905
aF3473.16437835784
aF3913.991280221962
aF17578.531308508416
aF716.0438576862831
aF795.0705625124227
aF23596.5746907707
aF83740.03094869659
aF887.9417510211335
aF11887.490054757292
aF29136.888400219905
aF216614.5600714603
aF6390.24390243902
aF29827.66860644908
aF37817.502969961024
aF7149.304928687489
aF176732.38336911993
aF8253.728841964146
aF5129.1200214085
aF169188.92836776807
aF9572.460766717288
aF62453.25355273001
aF24693.829879534114
aF13421.765236843139
aF2554.0971975878
aF14152.616138495772
aF5209.865131717149
aF6820.47827551363
aF1094.9212498947225
aF645.5777921239505
aF85306.51962374308
aF21183.57362202681
aF1394.36811318188
aF12731.713176121993
aF1752.9800661123884
aF12317.770806421802
aF4248.288883644087
aF645.2167928423949
aF3945.8300857365584
aF1791.2392118547523
aF9568.337501359138
aF18950.232187250807
aF31453.04193738933
aF2572.481401654731
aF2979.97827099177
aF8327.806028447192
aF13520.678685047711
aF619.1311526158287
aF17051.375161830198
aF33122.162917144684
aF6083.237969041737
aF2256.647962917781
aF2024.7118679264904
aF26579.600846132576
aF11693.588346050907
aF24339.933993399296
aF153.62556329373197
aF6195.718316092272
aF0.0
aF3233.02661029595
aF8915.072206871382
aF13822.330888345601
aF2466.7931688804597
aF4160.032869395509
aF157662.73203702795
aF0.0
aF3032.1406913280775
aF40535.62331708029
aF17293.505865280007
aF52204.79431784546
aF1474.7859181731696
aF8432.07094570037
aF4234.596654668636
aF13012.72984441301
aF1278.9463658875093
aF666.3057510515141
aF2975.8902451326485
aF8799.87862236383
aF964.5268459972139
aF2762.4309392265195
aF2474.39006284951
aF40798.82819477691
aF1390.0026730820607
aF0.0
aF11267.085334318406
aF184133.47772029001
aF31453.226613306684
aF4880.795945184907
aF14325.771093550897
aF8919.53441295546
aF8625.288991641468
aF1673.2644982247095
aF48956.083513318896
aF26670.540383497995
aF12341.085271317801
aF53394.88901324378
aF1856.0910722019396
aF8795.562599049135
aF12293.477409756506
aF74384.59663660743
aF5175.983436853002
aF43634.14964145577
asS'd__Bacteria.p__Verrucomicrobiota.c__Verrucomicrobiae'
p121
(lp122
F75015.95114392492
aF165154.00557421608
aF469.8512137823019
aF0.0
aF110.44435445274794
aF147.0083794776304
aF0.0
aF1265.7710995876007
aF0.0
aF1614.45320007688
aF902.0886822566088
aF236.6723862493342
aF43962.4853458382
aF31631.28865117836
aF402.39649467942434
aF253181.9257156381
aF153.94681137666956
aF0.0
aF266.3521174993345
aF52534.804307853985
aF425.025501530091
aF0.0
aF0.0
aF1044.3864229765004
aF137303.13008291312
aF1692.8158546655684
aF0.0
aF47877.116469984554
aF197.81741452639196
aF96.25874350253476
aF622.8718544971351
aF6417.5467099918815
aF0.0
aF1221.4154848340893
aF0.0
aF0.0
aF674.1383668998066
aF218577.80110207314
aF0.0
aF0.0
aF98572.80189307105
aF14625.453204694903
aF158117.36669645502
aF1228.50122850123
aF644.0281030444961
aF560972.269770627
aF50053.583811385
aF0.0
aF328.52710348603813
aF5028.4948038887005
aF520.1664532650452
aF0.0
aF0.0
aF482.45614035087664
aF30784.61880417871
aF0.0
aF191611.57966719856
aF508.10139445604926
aF366.41541038525946
aF0.0
aF281.1696658097688
aF2236.2807120788593
aF99534.44262436424
aF771.4263673532361
aF396660.099446477
aF226.34676324128583
aF24218.503315440506
aF164.7717910693691
aF173439.353336555
aF0.0
aF0.0
aF55638.12921125644
aF392448.5125858123
aF392481.5394942941
aF198.76764062810568
aF333.016175071361
aF149982.1449827404
aF695435.9793997514
aF0.0
aF296.0206368672561
aF0.0
aF195.121951219512
aF899.6092322397453
aF399502.17797137523
aF35854.84744538728
aF26976.381026742085
aF0.0
aF446.01043664421695
aF16274.071149712707
aF322.1501219568319
aF261.7801047120421
aF7975.439650281984
aF117.7347827793258
aF814331.323164243
aF623456.5911215704
aF11848.241670517997
aF20545.638262041088
aF0.0
aF742721.8789387929
aF0.0
aF8431.790974860776
aF0.0
aF7366.777435240417
aF0.0
aF2675.7704373500605
aF94.40641963653523
aF1118.3757742601497
aF0.0
aF0.0
aF98945.30825269101
aF375.2521225198181
aF0.0
aF0.0
aF4780.38180971597
aF0.0
aF0.0
aF154.78278815395694
aF252.612965360447
aF0.0
aF180.69023670420992
aF0.0
aF2595.7844460596007
aF0.0
aF0.0
aF14026.402640263997
aF358.45964768537493
aF5421.253526580742
aF4636.280527621781
aF0.0
aF238360.87795214003
aF0.0
aF0.0
aF102.71686097272897
aF244.89396091492395
aF0.0
aF0.0
aF0.0
aF241.8672148990201
aF0.0
aF0.0
aF436.141600639674
aF0.0
aF377.18057520037723
aF54.42324961223428
aF0.0
aF34701.90658730958
aF5727.507206797151
aF0.0
aF0.0
aF0.0
aF0.0
aF0.0
aF0.0
aF0.0
aF0.0
aF0.0
aF0.0
aF8819.780780015288
aF0.0
aF0.0
aF81.62265844998568
aF0.0
aF0.0
aF0.0
aF0.0
aF0.0
aF237.71790808240917
aF469.8144233027952
aF0.0
aF0.0
aF0.0
asS'd__Bacteria.p__Campilobacterota'
p123
(lp124
F0.0
aF0.0
aF0.0
aF0.0
aF0.0
aF0.0
aF0.0
aF163.32530317259355
aF0.0
aF0.0
aF0.0
aF0.0
aF0.0
aF0.0
aF0.0
aF0.0
aF153.94681137666956
aF0.0
aF0.0
aF0.0
aF0.0
aF0.0
aF0.0
aF0.0
aF79.34303963184831
aF0.0
aF0.0
aF0.0
aF0.0
aF641.724956683565
aF0.0
aF0.0
aF158.5351353493714
aF0.0
aF0.0
aF0.0
aF0.0
aF0.0
aF0.0
aF0.0
aF0.0
aF0.0
aF0.0
aF0.0
aF0.0
aF0.0
aF0.0
aF0.0
aF0.0
aF0.0
aF0.0
aF0.0
aF0.0
aF0.0
aF0.0
aF0.0
aF0.0
aF0.0
aF0.0
aF0.0
aF0.0
aF735.6186552890978
aF0.0
aF0.0
aF0.0
aF0.0
aF0.0
aF0.0
aF0.0
aF0.0
aF0.0
aF0.0
aF0.0
aF0.0
aF0.0
aF0.0
aF0.0
aF0.0
aF0.0
aF0.0
aF0.0
aF0.0
aF0.0
aF0.0
aF0.0
aF0.0
aF0.0
aF0.0
aF0.0
aF0.0
aF0.0
aF0.0
aF0.0
aF0.0
aF0.0
aF0.0
aF0.0
aF0.0
aF0.0
aF0.0
aF0.0
aF0.0
aF0.0
aF0.0
aF0.0
aF0.0
aF0.0
aF0.0
aF0.0
aF0.0
aF0.0
aF0.0
aF0.0
aF0.0
aF0.0
aF0.0
aF0.0
aF0.0
aF0.0
aF0.0
aF0.0
aF0.0
aF0.0
aF0.0
aF0.0
aF0.0
aF0.0
aF0.0
aF0.0
aF0.0
aF0.0
aF0.0
aF0.0
aF0.0
aF0.0
aF0.0
aF0.0
aF0.0
aF0.0
aF0.0
aF0.0
aF0.0
aF0.0
aF0.0
aF0.0
aF0.0
aF0.0
aF0.0
aF0.0
aF0.0
aF0.0
aF0.0
aF0.0
aF0.0
aF0.0
aF0.0
aF0.0
aF0.0
aF0.0
aF0.0
aF0.0
aF0.0
aF0.0
aF0.0
aF0.0
aF0.0
aF0.0
aF0.0
aF0.0
aF0.0
aF0.0
asS'd__Bacteria.p__Proteobacteria.c__Gammaproteobacteria'
p125
(lp126
F20508.613617719406
aF556563.9962838562
aF730.8796658835813
aF196676.3076621402
aF28641.90258807938
aF122065.95775959194
aF12292.849918307038
aF29480.217222653224
aF402521.4379010733
aF252200.65346915228
aF27340.22621608488
aF180048.51783918115
aF6512.960791976033
aF228062.84472672603
aF431592.595904498
aF7002.602318429152
aF22514.72116383794
aF423271.88940092176
aF3158.1751074921062
aF8230.452674897115
aF189816.38898333855
aF351430.9764309765
aF68410.64778630863
aF487491.0989793501
aF91363.51013607331
aF411643.27002477285
aF2129.4395011027477
aF207189.5844022578
aF770663.6774257362
aF679875.5053584034
aF31434.26625695536
aF79935.01218521531
aF418572.3911061786
aF645144.8734477843
aF99895.86948976047
aF205180.97941802742
aF8848.066065559951
aF655.9958016268705
aF60355.4588320639
aF16285.381930980946
aF739.4808844191376
aF10876.91267744118
aF13166.517724158502
aF682.500682500683
aF380444.964871194
aF289626.840123245
aF2647.6706801992045
aF533.3017302678364
aF22923.89122102574
aF1759.973181361045
aF119958.3866837392
aF965408.1024724458
aF11478.080568720377
aF4166.6666666666615
aF10835.741275839104
aF19955.030916245083
aF57670.38978801
aF14791.396149720507
aF20100.50251256284
aF10205.779577347608
aF395726.2210796918
aF33191.11372664409
aF294637.4687473061
aF8948.545861297542
aF9897.738999906185
aF7605.2512449071955
aF25797.284496368837
aF501812.48970176297
aF62865.175943417016
aF8243.876401162444
aF41623.7043468823
aF306133.57114546176
aF728.1048470979827
aF572074.2895502349
aF6890.611541774331
aF20313.986679353
aF9165.575526723005
aF247735.74853489615
aF23774.980109514636
aF33873.21859009603
aF51622.74825070719
aF2682.9268292682973
aF96089.5111186078
aF348899.70017536904
aF817295.5407113197
aF62424.36072613696
aF28573.822691469806
aF63690.29035279425
aF318243.62854761555
aF538404.8966818536
aF99700.82273747196
aF5272.466379684323
aF343471.60629488627
aF152855.62256119153
aF197491.85982784771
aF566404.7729087014
aF348265.4092286963
aF245220.24762065226
aF24193.79630483571
aF4905.935776840739
aF26700.671420392493
aF677594.885049653
aF13532.449853865595
aF301913.2525292998
aF738.1435689241562
aF113901.34529147991
aF249569.85547143852
aF3215.1208106001586
aF12972.914291917761
aF6469.500924214419
aF30536.14147005022
aF204223.2722976962
aF16269.206702356905
aF775166.8477417356
aF33937.65200088427
aF5744.0791799222425
aF396501.9089877208
aF823139.3476270171
aF188556.8913054322
aF203698.1268445459
aF0.0
aF45322.3964282006
aF509610.96293571213
aF54305.81706471112
aF2946.723243752946
aF558838.5907414997
aF4702.10765060574
aF457.09808018806314
aF24993.78264113404
aF11678.223241749653
aF27383.863080684634
aF299193.5483870968
aF27630.835601663992
aF4065.239751187739
aF963779.8856548858
aF35476.0460885385
aF186958.73662761095
aF37489.41830934816
aF9351.879254217225
aF859514.7478591817
aF17591.0445591335
aF10868.798080316175
aF758698.727015559
aF37334.34923399278
aF50056.219547745015
aF68041.96509633807
aF330071.3093612502
aF203568.7493301894
aF905585.4083099978
aF4998.267926956
aF58983.24461434029
aF37957.7653033948
aF152119.07164480304
aF421961.5810860733
aF14879.87807323627
aF17446.223111555726
aF627604.6555284401
aF1937.2928880958457
aF10690.789473684184
aF201938.4670104926
aF828388.3606089047
aF15894.11308633774
aF987.7977919814057
aF17488.37209302327
aF640552.1357955605
aF3279.094227556766
aF9270.998415213957
aF1957.560097094984
aF12527.418961735324
aF126952.75738753988
aF86591.800838858
asS'd__Bacteria.p__Fusobacteriota.c__Fusobacteriia'
p127
(lp128
F0.0
aF0.0
aF0.0
aF0.0
aF257.70349372307885
aF0.0
aF0.0
aF0.0
aF11357.82838321311
aF0.0
aF0.0
aF0.0
aF0.0
aF0.0
aF0.0
aF0.0
aF0.0
aF0.0
aF0.0
aF0.0
aF127.50765045902787
aF0.0
aF0.0
aF0.0
aF0.0
aF0.0
aF0.0
aF0.0
aF0.0
aF0.0
aF0.0
aF0.0
aF0.0
aF169.64103956029038
aF0.0
aF0.0
aF0.0
aF0.0
aF0.0
aF0.0
aF0.0
aF0.0
aF0.0
aF0.0
aF0.0
aF0.0
aF0.0
aF0.0
aF0.0
aF0.0
aF0.0
aF0.0
aF481.3388625592417
aF0.0
aF0.0
aF0.0
aF0.0
aF0.0
aF0.0
aF0.0
aF0.0
aF0.0
aF0.0
aF154.285273470647
aF249366.73233886898
aF0.0
aF0.0
aF0.0
aF0.0
aF0.0
aF0.0
aF0.0
aF0.0
aF0.0
aF0.0
aF0.0
aF0.0
aF0.0
aF0.0
aF5412.9487884298205
aF0.0
aF0.0
aF0.0
aF0.0
aF144.43040259974728
aF0.0
aF0.0
aF0.0
aF0.0
aF0.0
aF0.0
aF0.0
aF0.0
aF461.15643845335234
aF0.0
aF0.0
aF0.0
aF0.0
aF0.0
aF0.0
aF0.0
aF0.0
aF0.0
aF0.0
aF0.0
aF0.0
aF0.0
aF243.5697583787999
aF0.0
aF0.0
aF140.71954594493207
aF0.0
aF0.0
aF0.0
aF110.54609772274989
aF0.0
aF0.0
aF0.0
aF0.0
aF0.0
aF0.0
aF0.0
aF0.0
aF0.0
aF0.0
aF0.0
aF0.0
aF0.0
aF1803.03407112659
aF0.0
aF0.0
aF2988.614800759009
aF0.0
aF0.0
aF0.0
aF0.0
aF0.0
aF0.0
aF947.0257472625034
aF0.0
aF0.0
aF0.0
aF0.0
aF0.0
aF0.0
aF0.0
aF0.0
aF1768.2992176615567
aF0.0
aF0.0
aF0.0
aF0.0
aF15136.226034308806
aF0.0
aF0.0
aF110805.40270135095
aF0.0
aF0.0
aF0.0
aF0.0
aF0.0
aF0.0
aF0.0
aF0.0
aF279.7985450475659
aF0.0
aF237.71790808240917
aF0.0
aF0.0
aF0.0
aF0.0
asS'd__Bacteria.p__Firmicutes.c__Bacilli'
p129
(lp130
F21875.85452556741
aF4931.036947044953
aF33568.25894022444
aF7402.323643315852
aF1398.9618230681433
aF14749.840740922218
aF90718.12028320228
aF40178.024580458165
aF211539.55363734436
aF1806.650009609837
aF2359.308861286519
aF88515.47245725113
aF11332.551778038342
aF26073.875981948906
aF19449.163909505485
aF11071.682044002844
aF41411.692260324104
aF9400.921658986183
aF746584.9853506339
aF3764.9943087295283
aF16575.994559673596
aF4587.5420875420805
aF14941.841754402094
aF12437.692855447434
aF32490.974729241876
aF94632.53509496278
aF11407.711613050426
aF10710.620831195476
aF4319.013550492896
aF54674.96630943976
aF21011.54389170337
aF23233.143785540233
aF90523.56228449129
aF23580.10449888036
aF5345.366192294343
aF46841.73172462741
aF26881.267380129786
aF106599.31776436635
aF50126.94958287994
aF49146.95618456763
aF6359.535606004577
aF307.25742026669906
aF13464.402740542173
aF4026.7540267540285
aF4391.10070257611
aF24375.213967819247
aF17462.01853369481
aF64529.509362408244
aF46541.33966052198
aF12655.045256453266
aF61859.79513444305
aF7000.297885016378
aF54391.29146919426
aF13114.035087719245
aF23060.68015114473
aF6822.01441054729
aF22657.85274675172
aF10105.572178625873
aF26329.56448911223
aF285650.8957790226
aF44023.13624678665
aF3854.6417537148727
aF18018.794723683106
aF9989.97145722441
aF2486.161928886384
aF36079.674060660895
aF61793.49542153464
aF15159.004778381912
aF9357.290339586172
aF82794.61479153072
aF1953.6549628262871
aF12584.22512881494
aF6864.988558352406
aF4564.779592750061
aF926389.7170873913
aF17364.4148430067
aF33031.78193072248
aF5549.635943882086
aF2901.6708007675397
aF90328.58290692265
aF18200.089325591744
aF2292.68292682927
aF36518.51227123221
aF55326.12999943428
aF8413.070951435278
aF12414.60081983208
aF24928.774928774976
aF10615.048392132374
aF6141.158924419878
aF29039.532422108696
aF4749.439042632761
aF35839.42336570231
aF278560.4960558848
aF4788.932245477121
aF17183.016860633757
aF69786.98374017898
aF458908.72347591777
aF241977.59622673327
aF40425.46650680932
aF33084.65780084329
aF98787.27944620844
aF1462.38606992246
aF5124.714737558557
aF8764.900330561952
aF3229.3781140431793
aF2454.5669105499182
aF1548.5203028217495
aF16514.02961808261
aF150898.33360473296
aF3751.2232249646577
aF7739.575026971245
aF1772.00236266982
aF1321.0039630118895
aF1272.69905323607
aF125248.72871987605
aF43787.5574407918
aF4075.9467547208756
aF2936.6257223151997
aF1396.7177133735713
aF4276.335601999638
aF11405.220785557456
aF6177.966981621851
aF7265.704037524133
aF1337.8257853532848
aF2652.0509193776547
aF38252.76526013928
aF14051.004038280664
aF14496.539114535706
aF166003.48172096533
aF2241.801783014437
aF3781.5810920945355
aF14373.814041745778
aF2105.6956499409416
aF7934.564333643526
aF2501.299376299379
aF1758.6416009702857
aF3929.8449894476394
aF3567.5414197605537
aF2012.4297129328204
aF64938.15413891528
aF34455.18645053426
aF4305.17326557978
aF8172.245796008178
aF4598.764592233803
aF8953.483529754716
aF4842.12650055483
aF9937.793961462601
aF6966.027221090986
aF3405.736774388859
aF643.341416340872
aF5430.316887571012
aF3475.00668270516
aF882.9465186680123
aF56289.250092353184
aF72353.90847471215
aF116933.4667333666
aF6851.88661535574
aF6066.785623247519
aF3289.473684210523
aF15027.565356571225
aF9672.285026323305
aF38433.848369053514
aF24288.204532248692
aF8062.01550387597
aF17953.739973885433
aF673699.1895068982
aF633.9144215530905
aF7360.42596507713
aF54496.7097245917
aF6587.615283267452
aF12447.57137058584
asS'd__Bacteria.p__Campilobacterota.c__Campylobacteria'
p131
(lp132
F0.0
aF0.0
aF0.0
aF0.0
aF0.0
aF0.0
aF0.0
aF163.32530317259355
aF0.0
aF0.0
aF0.0
aF0.0
aF0.0
aF0.0
aF0.0
aF0.0
aF153.94681137666956
aF0.0
aF0.0
aF0.0
aF0.0
aF0.0
aF0.0
aF0.0
aF79.34303963184831
aF0.0
aF0.0
aF0.0
aF0.0
aF641.724956683565
aF0.0
aF0.0
aF158.5351353493714
aF0.0
aF0.0
aF0.0
aF0.0
aF0.0
aF0.0
aF0.0
aF0.0
aF0.0
aF0.0
aF0.0
aF0.0
aF0.0
aF0.0
aF0.0
aF0.0
aF0.0
aF0.0
aF0.0
aF0.0
aF0.0
aF0.0
aF0.0
aF0.0
aF0.0
aF0.0
aF0.0
aF0.0
aF735.6186552890978
aF0.0
aF0.0
aF0.0
aF0.0
aF0.0
aF0.0
aF0.0
aF0.0
aF0.0
aF0.0
aF0.0
aF0.0
aF0.0
aF0.0
aF0.0
aF0.0
aF0.0
aF0.0
aF0.0
aF0.0
aF0.0
aF0.0
aF0.0
aF0.0
aF0.0
aF0.0
aF0.0
aF0.0
aF0.0
aF0.0
aF0.0
aF0.0
aF0.0
aF0.0
aF0.0
aF0.0
aF0.0
aF0.0
aF0.0
aF0.0
aF0.0
aF0.0
aF0.0
aF0.0
aF0.0
aF0.0
aF0.0
aF0.0
aF0.0
aF0.0
aF0.0
aF0.0
aF0.0
aF0.0
aF0.0
aF0.0
aF0.0
aF0.0
aF0.0
aF0.0
aF0.0
aF0.0
aF0.0
aF0.0
aF0.0
aF0.0
aF0.0
aF0.0
aF0.0
aF0.0
aF0.0
aF0.0
aF0.0
aF0.0
aF0.0
aF0.0
aF0.0
aF0.0
aF0.0
aF0.0
aF0.0
aF0.0
aF0.0
aF0.0
aF0.0
aF0.0
aF0.0
aF0.0
aF0.0
aF0.0
aF0.0
aF0.0
aF0.0
aF0.0
aF0.0
aF0.0
aF0.0
aF0.0
aF0.0
aF0.0
aF0.0
aF0.0
aF0.0
aF0.0
aF0.0
aF0.0
aF0.0
aF0.0
aF0.0
asS'd__Bacteria.p__Proteobacteria'
p133
(lp134
F20508.613617719406
aF556563.9962838562
aF730.8796658835813
aF196676.3076621402
aF31881.603652026668
aF123046.01362277614
aF12292.849918307038
aF31603.446163896944
aF402521.4379010733
aF252200.65346915228
aF27340.22621608488
aF180048.51783918115
aF6838.608831574835
aF228856.76082233025
aF431592.595904498
aF7239.176721078785
aF23630.835546318795
aF425069.1244239632
aF4261.633879989346
aF8799.579721565533
aF189816.38898333855
aF351430.9764309765
aF68410.64778630863
aF487491.0989793501
aF94973.61843932242
aF411767.13459950447
aF2129.4395011027477
aF208055.4130323245
aF770663.6774257362
aF680741.8340499263
aF32347.811643551162
aF79935.01218521531
aF419166.89786373876
aF645246.6580715206
aF99895.86948976047
aF205180.97941802742
aF8848.066065559951
aF1049.5932826029925
aF60355.4588320639
aF16527.723924001497
aF739.4808844191376
aF10876.91267744118
aF13166.517724158502
aF682.500682500683
aF380444.964871194
aF289763.7795275586
aF2647.6706801992045
aF533.3017302678364
aF23179.41230151488
aF2011.3979215554803
aF120518.56594110155
aF965408.1024724458
aF11478.080568720377
aF4166.6666666666615
aF10946.877083796428
aF19955.030916245083
aF57670.38978801
aF14791.396149720507
aF20100.50251256284
aF10205.779577347608
aF396087.7249357329
aF45402.38340444312
aF294637.4687473061
aF8948.545861297542
aF9897.738999906185
aF7741.059302851967
aF25923.5869908431
aF501812.48970176297
aF63172.69252734708
aF8243.876401162444
aF41623.7043468823
aF306133.57114546176
aF728.1048470979827
aF572074.2895502349
aF7023.123302193068
aF20409.134157944816
aF9284.608975122004
aF247735.74853489615
aF23774.980109514636
aF33873.21859009603
aF51697.186243858894
aF2682.9268292682973
aF96539.31573472766
aF348899.70017536904
aF817439.9711139194
aF62424.36072613696
aF28825.205295793585
aF64136.300789438465
aF318331.359389393
aF538496.9395738413
aF100149.58863126404
aF5272.466379684323
aF344413.4845571209
aF152855.62256119153
aF197556.33643895705
aF566404.7729087014
aF348433.8160996967
aF245220.24762065226
aF24408.98890221036
aF4905.935776840739
aF26700.671420392493
aF677594.885049653
aF13532.449853865595
aF301913.2525292998
aF738.1435689241562
aF113901.34529147991
aF249569.85547143852
aF3312.5487139516786
aF12972.914291917761
aF6469.500924214419
aF30536.14147005022
aF204223.2722976962
aF16269.206702356905
aF775166.8477417356
aF33937.65200088427
aF5744.0791799222425
aF396501.9089877208
aF823139.3476270171
aF188556.8913054322
aF203698.1268445459
aF0.0
aF45322.3964282006
aF509610.96293571213
aF54305.81706471112
aF2946.723243752946
aF558838.5907414997
aF4702.10765060574
aF457.09808018806314
aF24993.78264113404
aF11678.223241749653
aF27383.863080684634
aF299335.8633776091
aF27630.835601663992
aF4065.239751187739
aF963779.8856548858
aF35476.0460885385
aF186958.73662761095
aF37489.41830934816
aF9351.879254217225
aF859514.7478591817
aF17591.0445591335
aF10868.798080316175
aF759075.9075907593
aF37334.34923399278
aF50056.219547745015
aF68041.96509633807
aF330071.3093612502
aF203568.7493301894
aF905585.4083099978
aF4998.267926956
aF59912.114608266915
aF37957.7653033948
aF152119.07164480304
aF421961.5810860733
aF16644.60754822925
aF17758.879439719807
aF627604.6555284401
aF1937.2928880958457
aF10690.789473684184
aF201938.4670104926
aF828388.3606089047
aF16060.253641247195
aF987.7977919814057
aF17488.37209302327
aF640552.1357955605
aF3279.094227556766
aF9270.998415213957
aF2192.467308746382
aF12722.398245186458
aF126952.75738753988
aF86862.40021647944
asS'd__Bacteria.p__Actinobacteriota.c__Actinobacteria.o__Micrococcales'
p135
(lp136
F0.0
aF0.0
aF0.0
aF0.0
aF0.0
aF343.0195521144703
aF0.0
aF244.98795475889082
aF1703.6742574819714
aF0.0
aF0.0
aF1005.8576415596709
aF0.0
aF167.14023065351873
aF0.0
aF0.0
aF346.3803255975062
aF230.41474654377907
aF532.7042349986681
aF131.33701076963496
aF212.5127507650455
aF0.0
aF0.0
aF0.0
aF0.0
aF412.88191577208863
aF0.0
aF0.0
aF0.0
aF128.3449913367134
aF2491.487417988543
aF203.08692120227505
aF2417.6608140779185
aF0.0
aF0.0
aF0.0
aF0.0
aF0.0
aF0.0
aF242.34199302055063
aF0.0
aF0.0
aF0.0
aF0.0
aF0.0
aF0.0
aF0.0
aF177.76724342261213
aF0.0
aF0.0
aF0.0
aF0.0
aF0.0
aF0.0
aF0.0
aF0.0
aF0.0
aF0.0
aF0.0
aF0.0
aF241.0025706940871
aF3383.8458143298494
aF0.0
aF0.0
aF0.0
aF0.0
aF0.0
aF0.0
aF0.0
aF0.0
aF0.0
aF0.0
aF0.0
aF0.0
aF0.0
aF0.0
aF0.0
aF0.0
aF0.0
aF126.86598722882404
aF0.0
aF0.0
aF0.0
aF11936.414549980207
aF0.0
aF0.0
aF0.0
aF0.0
aF0.0
aF0.0
aF0.0
aF0.0
aF78.48985518621723
aF0.0
aF0.0
aF0.0
aF126.30515325025284
aF0.0
aF0.0
aF0.0
aF0.0
aF0.0
aF0.0
aF0.0
aF0.0
aF0.0
aF0.0
aF0.0
aF2768.2787819573437
aF0.0
aF0.0
aF0.0
aF0.0
aF0.0
aF0.0
aF309.2965712265823
aF0.0
aF0.0
aF0.0
aF0.0
aF0.0
aF0.0
aF0.0
aF0.0
aF0.0
aF0.0
aF0.0
aF0.0
aF7647.3514051231
aF0.0
aF0.0
aF0.0
aF0.0
aF0.0
aF0.0
aF0.0
aF0.0
aF0.0
aF0.0
aF1807.8020932445295
aF0.0
aF0.0
aF62.863429200062946
aF81.63487441835146
aF0.0
aF0.0
aF0.0
aF267.9241238881152
aF0.0
aF0.0
aF428.70922796613206
aF0.0
aF0.0
aF0.0
aF0.0
aF3564.2821410705383
aF0.0
aF0.0
aF0.0
aF0.0
aF0.0
aF0.0
aF0.0
aF0.0
aF373.06472673008784
aF0.0
aF0.0
aF0.0
aF194.97928345113306
aF0.0
aF135.2996888107159
asS'd__Bacteria.p__Patescibacteria.c__Saccharimonadia'
p137
(lp138
F729.1951508522473
aF285.8572143214461
aF0.0
aF0.0
aF404.9626329934098
aF441.02513843289125
aF155.60569516844294
aF326.6506063451881
aF0.0
aF0.0
aF0.0
aF473.34477249866944
aF195.388823759281
aF4094.9356510112043
aF0.0
aF0.0
aF0.0
aF0.0
aF0.0
aF0.0
aF0.0
aF589.2255892255891
aF321.8242839409678
aF9399.477806788514
aF6664.815329075262
aF1445.0867052023086
aF0.0
aF3302.9758850692633
aF230.78698361412395
aF2470.6410832317265
aF1993.189934390836
aF1177.9041429731901
aF18429.70948436445
aF237.49745538440635
aF138.84068031933398
aF0.0
aF0.0
aF0.0
aF362.7130939426911
aF0.0
aF0.0
aF0.0
aF0.0
aF0.0
aF0.0
aF0.0
aF378.23866859988703
aF0.0
aF146.01204599379406
aF419.04123365739196
aF0.0
aF0.0
aF518.3649289099519
aF0.0
aF0.0
aF0.0
aF136.76772281741555
aF0.0
aF994.5561139028474
aF0.0
aF2289.524421593836
aF0.0
aF0.0
aF0.0
aF328.361009475561
aF2942.5079221367077
aF0.0
aF0.0
aF0.0
aF177.92538995314604
aF0.0
aF0.0
aF0.0
aF0.0
aF0.0
aF0.0
aF0.0
aF0.0
aF0.0
aF253.73197445764808
aF0.0
aF0.0
aF0.0
aF707.1335633874534
aF0.0
aF156.15850087839192
aF0.0
aF1739.44070291245
aF0.0
aF0.0
aF0.0
aF0.0
aF6357.678270083593
aF0.0
aF225.66813888261987
aF0.0
aF0.0
aF1473.9324517813538
aF0.0
aF121.63477132662997
aF0.0
aF0.0
aF360.3315049845859
aF0.0
aF0.0
aF0.0
aF0.0
aF0.0
aF108.55995223362115
aF217.4622159399801
aF515.9716684647501
aF639.8897420752127
aF0.0
aF0.0
aF368.4869924091676
aF132.55567338282108
aF309.56557630791485
aF0.0
aF399.0622038210208
aF0.0
aF0.0
aF0.0
aF0.0
aF346.84372212862917
aF0.0
aF0.0
aF663.8269624384582
aF0.0
aF2238.24919174335
aF0.0
aF0.0
aF0.0
aF0.0
aF0.0
aF0.0
aF0.0
aF0.0
aF0.0
aF0.0
aF1141.7697431018098
aF0.0
aF141.15322182228786
aF345.74886060034623
aF0.0
aF374.79698496647603
aF151.31645314233793
aF1099.9848277954802
aF0.0
aF0.0
aF0.0
aF428.70922796613206
aF0.0
aF0.0
aF5402.659770964173
aF3088.2765812377197
aF9379.689844922455
aF563.1687629059508
aF0.0
aF0.0
aF933.6653032189217
aF0.0
aF0.0
aF464.84601975595587
aF0.0
aF6481.999626935267
aF371.2182144403889
aF0.0
aF0.0
aF7262.978308554722
aF0.0
aF676.4984440535786
asS'd__Bacteria.p__Verrucomicrobiota.c__Verrucomicrobiae.o__Verrucomicrobiales'
p139
(lp140
F75015.95114392492
aF165154.00557421608
aF469.8512137823019
aF0.0
aF110.44435445274794
aF147.0083794776304
aF0.0
aF1265.7710995876007
aF0.0
aF1614.45320007688
aF902.0886822566088
aF236.6723862493342
aF43962.4853458382
aF31631.28865117836
aF402.39649467942434
aF253181.9257156381
aF153.94681137666956
aF0.0
aF266.3521174993345
aF52534.804307853985
aF425.025501530091
aF0.0
aF0.0
aF1044.3864229765004
aF137303.13008291312
aF1692.8158546655684
aF0.0
aF47877.116469984554
aF197.81741452639196
aF96.25874350253476
aF622.8718544971351
aF6417.5467099918815
aF0.0
aF1221.4154848340893
aF0.0
aF0.0
aF674.1383668998066
aF218577.80110207314
aF0.0
aF0.0
aF98572.80189307105
aF14625.453204694903
aF158117.36669645502
aF1228.50122850123
aF644.0281030444961
aF560972.269770627
aF50053.583811385
aF0.0
aF328.52710348603813
aF5028.4948038887005
aF520.1664532650452
aF0.0
aF0.0
aF482.45614035087664
aF30784.61880417871
aF0.0
aF191611.57966719856
aF508.10139445604926
aF366.41541038525946
aF0.0
aF281.1696658097688
aF2236.2807120788593
aF99534.44262436424
aF771.4263673532361
aF396660.099446477
aF226.34676324128583
aF24218.503315440506
aF164.7717910693691
aF173439.353336555
aF0.0
aF0.0
aF55638.12921125644
aF392448.5125858123
aF392481.5394942941
aF198.76764062810568
aF333.016175071361
aF149982.1449827404
aF695435.9793997514
aF0.0
aF296.0206368672561
aF0.0
aF195.121951219512
aF899.6092322397453
aF399502.17797137523
aF35854.84744538728
aF26976.381026742085
aF0.0
aF446.01043664421695
aF16274.071149712707
aF322.1501219568319
aF261.7801047120421
aF7975.439650281984
aF117.7347827793258
aF814331.323164243
aF623456.5911215704
aF11848.241670517997
aF20545.638262041088
aF0.0
aF742721.8789387929
aF0.0
aF8431.790974860776
aF0.0
aF7366.777435240417
aF0.0
aF2675.7704373500605
aF94.40641963653523
aF1118.3757742601497
aF0.0
aF0.0
aF98945.30825269101
aF375.2521225198181
aF0.0
aF0.0
aF4780.38180971597
aF0.0
aF0.0
aF154.78278815395694
aF252.612965360447
aF0.0
aF180.69023670420992
aF0.0
aF2595.7844460596007
aF0.0
aF0.0
aF14026.402640263997
aF358.45964768537493
aF5421.253526580742
aF4636.280527621781
aF0.0
aF238360.87795214003
aF0.0
aF0.0
aF102.71686097272897
aF244.89396091492395
aF0.0
aF0.0
aF0.0
aF241.8672148990201
aF0.0
aF0.0
aF436.141600639674
aF0.0
aF377.18057520037723
aF54.42324961223428
aF0.0
aF34701.90658730958
aF5727.507206797151
aF0.0
aF0.0
aF0.0
aF0.0
aF0.0
aF0.0
aF0.0
aF0.0
aF0.0
aF0.0
aF8819.780780015288
aF0.0
aF0.0
aF81.62265844998568
aF0.0
aF0.0
aF0.0
aF0.0
aF0.0
aF237.71790808240917
aF469.8144233027952
aF0.0
aF0.0
aF0.0
asS'd__Bacteria.p__Firmicutes.c__Negativicutes.o__Acidaminococcales'
p141
(lp142
F6653.905751526752
aF0.0
aF887.4967371443479
aF9657.33614392862
aF220.8887089054959
aF0.0
aF2100.6768847739786
aF1551.5903801396423
aF0.0
aF0.0
aF0.0
aF295.84048281166827
aF27028.7872867005
aF250.7103459802776
aF491.81793794151844
aF0.0
aF1231.5744910133565
aF140506.91244239605
aF0.0
aF16023.115313895498
aF6162.869772186328
aF4797.979797979801
aF0.0
aF5079.515784476622
aF317.3721585273934
aF0.0
aF9126.169290440333
aF0.0
aF626.4218126669078
aF0.0
aF0.0
aF0.0
aF0.0
aF0.0
aF15341.895175286396
aF0.0
aF421.33647931237914
aF0.0
aF0.0
aF630.089181853431
aF0.0
aF491.611872426719
aF9234.435507893952
aF477.750477750478
aF0.0
aF0.0
aF9897.24516169703
aF0.0
aF14747.216645373204
aF209.52061682869598
aF46734.9551856594
aF0.0
aF0.0
aF0.0
aF0.0
aF0.0
aF273.53544563483007
aF0.0
aF209.380234505863
aF0.0
aF883.676092544988
aF0.0
aF689.7146305716012
aF0.0
aF0.0
aF452.6935264825707
aF473.63435427849714
aF2965.892239248642
aF1669.3757413346202
aF1601.3285095783203
aF10256.688554838001
aF12931.034482758589
aF0.0
aF0.0
aF0.0
aF1522.35965746908
aF1249.8512081894999
aF0.0
aF20358.496747320587
aF16450.289677337503
aF558.2849486377849
aF5268.29268292683
aF2923.7300047791678
aF0.0
aF8015.887344285973
aF585.5943782939678
aF377.07390648567133
aF20070.4696489898
aF0.0
aF94389.98573335167
aF3066.5669409124907
aF5372.576500817566
aF25509.202935520618
aF106.42071656615869
aF0.0
aF0.0
aF0.0
aF0.0
aF4549.786344492603
aF0.0
aF0.0
aF0.0
aF1441.3260199383394
aF0.0
aF0.0
aF2596.1765400047184
aF258.08671713695793
aF7989.088074824625
aF705.6396895185379
aF0.0
aF3893.2407711431115
aF6497.341996456007
aF5423.068900785652
aF434.58016451963397
aF0.0
aF265.11134676564217
aF877.1024662057575
aF0.0
aF0.0
aF0.0
aF4147.3530129299825
aF2440.0373792960204
aF0.0
aF1932.415023288081
aF3300.3300330032994
aF0.0
aF442.5513082923052
aF0.0
aF21822.9296194976
aF104.26985037276502
aF0.0
aF379.5066413662239
aF0.0
aF636.7242983788019
aF0.0
aF606.4281382656155
aF1528.2730514518596
aF1511.6700931188805
aF25569.69517608758
aF0.0
aF15264.9560223886
aF5222.66920742466
aF0.0
aF29089.22691773929
aF0.0
aF0.0
aF0.0
aF0.0
aF2648.906380080219
aF4206.46310684416
aF0.0
aF695.0013365410324
aF0.0
aF0.0
aF641.719809088357
aF4689.844922461228
aF0.0
aF1019.6278358399197
aF189.777327935223
aF0.0
aF0.0
aF14177.3273522734
aF0.0
aF1240.31007751938
aF1445.6258160790894
aF0.0
aF1822.5039619651313
aF2740.5841359329715
aF682.4274920789672
aF0.0
aF608.8485996482206
asS'd__Bacteria.p__Proteobacteria.c__Alphaproteobacteria.o__Sphingomonadales'
p143
(lp144
F0.0
aF0.0
aF0.0
aF0.0
aF699.4809115340717
aF0.0
aF0.0
aF0.0
aF0.0
aF0.0
aF0.0
aF0.0
aF0.0
aF0.0
aF0.0
aF0.0
aF0.0
aF552.9953917050692
aF0.0
aF0.0
aF0.0
aF0.0
aF0.0
aF0.0
aF0.0
aF0.0
aF0.0
aF0.0
aF0.0
aF0.0
aF0.0
aF0.0
aF0.0
aF0.0
aF0.0
aF0.0
aF0.0
aF0.0
aF0.0
aF0.0
aF0.0
aF0.0
aF0.0
aF0.0
aF0.0
aF0.0
aF0.0
aF0.0
aF0.0
aF0.0
aF0.0
aF0.0
aF0.0
aF0.0
aF0.0
aF0.0
aF0.0
aF0.0
aF0.0
aF0.0
aF0.0
aF0.0
aF0.0
aF0.0
aF0.0
aF0.0
aF0.0
aF0.0
aF0.0
aF0.0
aF0.0
aF0.0
aF0.0
aF0.0
aF0.0
aF0.0
aF0.0
aF0.0
aF0.0
aF0.0
aF0.0
aF0.0
aF0.0
aF0.0
aF0.0
aF0.0
aF0.0
aF0.0
aF0.0
aF0.0
aF0.0
aF0.0
aF0.0
aF0.0
aF0.0
aF0.0
aF0.0
aF0.0
aF0.0
aF0.0
aF0.0
aF0.0
aF0.0
aF0.0
aF0.0
aF0.0
aF0.0
aF0.0
aF0.0
aF0.0
aF0.0
aF0.0
aF0.0
aF0.0
aF0.0
aF0.0
aF0.0
aF0.0
aF0.0
aF0.0
aF0.0
aF0.0
aF0.0
aF0.0
aF0.0
aF0.0
aF0.0
aF0.0
aF0.0
aF0.0
aF0.0
aF0.0
aF0.0
aF0.0
aF0.0
aF0.0
aF0.0
aF0.0
aF0.0
aF0.0
aF0.0
aF0.0
aF0.0
aF0.0
aF0.0
aF0.0
aF0.0
aF0.0
aF0.0
aF0.0
aF0.0
aF0.0
aF0.0
aF0.0
aF0.0
aF0.0
aF0.0
aF0.0
aF0.0
aF0.0
aF0.0
aF0.0
aF0.0
aF0.0
aF0.0
aF0.0
aF0.0
aF0.0
aF0.0
aF0.0
aF0.0
asS'd__Bacteria.p__Firmicutes.c__Bacilli.o__Staphylococcales'
p145
(lp146
F0.0
aF0.0
aF0.0
aF0.0
aF0.0
aF0.0
aF0.0
aF0.0
aF340.73485149639424
aF0.0
aF0.0
aF591.6809656233365
aF0.0
aF250.7103459802776
aF0.0
aF236.57440264963307
aF0.0
aF0.0
aF0.0
aF0.0
aF0.0
aF378.7878787878791
aF0.0
aF854.4979824353194
aF1150.4740746618002
aF5367.464905037155
aF0.0
aF0.0
aF758.3000890178369
aF1443.8811525380233
aF0.0
aF324.9390739236391
aF9234.671634100909
aF0.0
aF0.0
aF0.0
aF0.0
aF0.0
aF0.0
aF0.0
aF0.0
aF0.0
aF0.0
aF0.0
aF0.0
aF0.0
aF0.0
aF0.0
aF0.0
aF0.0
aF0.0
aF0.0
aF222.15639810426524
aF0.0
aF0.0
aF0.0
aF0.0
aF0.0
aF418.760469011725
aF0.0
aF602.5064267352193
aF0.0
aF0.0
aF0.0
aF0.0
aF769.5789950203705
aF0.0
aF0.0
aF0.0
aF0.0
aF0.0
aF0.0
aF0.0
aF0.0
aF0.0
aF0.0
aF0.0
aF0.0
aF0.0
aF0.0
aF111.65698972755678
aF0.0
aF0.0
aF876.8456186004414
aF0.0
aF0.0
aF0.0
aF0.0
aF0.0
aF0.0
aF0.0
aF0.0
aF0.0
aF212.84143313231635
aF322.3830555466007
aF0.0
aF378.9154597507575
aF0.0
aF0.0
aF0.0
aF0.0
aF0.0
aF0.0
aF0.0
aF0.0
aF0.0
aF0.0
aF0.0
aF0.0
aF0.0
aF0.0
aF0.0
aF0.0
aF0.0
aF147.39479696366686
aF0.0
aF0.0
aF0.0
aF0.0
aF0.0
aF0.0
aF0.0
aF0.0
aF0.0
aF0.0
aF0.0
aF0.0
aF0.0
aF2176.0756030838097
aF0.0
aF0.0
aF0.0
aF0.0
aF0.0
aF0.0
aF0.0
aF0.0
aF0.0
aF0.0
aF0.0
aF0.0
aF0.0
aF282.88543140028315
aF0.0
aF0.0
aF0.0
aF493.0966469428011
aF0.0
aF0.0
aF0.0
aF0.0
aF0.0
aF0.0
aF13714.444033986007
aF3168.49155737376
aF2501.250625312659
aF2111.882860897319
aF0.0
aF0.0
aF800.2845456162189
aF244.86797534995696
aF0.0
aF0.0
aF0.0
aF652.8632717776527
aF0.0
aF0.0
aF0.0
aF3558.3719229831813
aF0.0
aF0.0
asS'd__Archaea'
p147
(lp148
F0.0
aF0.0
aF0.0
aF0.0
aF0.0
aF0.0
aF0.0
aF0.0
aF0.0
aF0.0
aF0.0
aF0.0
aF0.0
aF0.0
aF0.0
aF0.0
aF0.0
aF368.6635944700461
aF114.15090749971495
aF56650.03064530249
aF0.0
aF547.1380471380471
aF0.0
aF0.0
aF6426.786210179712
aF0.0
aF0.0
aF128.27090815802964
aF0.0
aF0.0
aF0.0
aF0.0
aF0.0
aF2748.1848408767055
aF0.0
aF0.0
aF0.0
aF0.0
aF0.0
aF0.0
aF0.0
aF0.0
aF0.0
aF0.0
aF0.0
aF0.0
aF4286.7049107987095
aF0.0
aF0.0
aF0.0
aF9362.99615877081
aF186.17813523979694
aF0.0
aF0.0
aF0.0
aF0.0
aF0.0
aF0.0
aF0.0
aF0.0
aF0.0
aF0.0
aF0.0
aF1658.56668980946
aF1219.62660662351
aF0.0
aF81654.56267761292
aF0.0
aF0.0
aF0.0
aF0.0
aF0.0
aF0.0
aF0.0
aF0.0
aF0.0
aF0.0
aF0.0
aF0.0
aF5159.216813972172
aF0.0
aF0.0
aF295549.7455792638
aF0.0
aF7329.842931937174
aF13585.789576420093
aF0.0
aF0.0
aF0.0
aF0.0
aF0.0
aF0.0
aF0.0
aF0.0
aF0.0
aF0.0
aF0.0
aF0.0
aF0.0
aF0.0
aF0.0
aF136.03591348115899
aF0.0
aF0.0
aF0.0
aF0.0
aF0.0
aF0.0
aF0.0
aF18919.21278677828
aF0.0
aF0.0
aF0.0
aF0.0
aF0.0
aF574.4079179922235
aF0.0
aF0.0
aF0.0
aF0.0
aF0.0
aF0.0
aF0.0
aF0.0
aF0.0
aF0.0
aF0.0
aF0.0
aF0.0
aF0.0
aF0.0
aF0.0
aF0.0
aF244.89396091492395
aF0.0
aF1273.499090357789
aF1892.1475875118297
aF0.0
aF0.0
aF0.0
aF0.0
aF7269.390923847834
aF0.0
aF0.0
aF0.0
aF0.0
aF0.0
aF0.0
aF0.0
aF0.0
aF0.0
aF0.0
aF0.0
aF0.0
aF0.0
aF187.59379689844891
aF0.0
aF3211.827682895739
aF0.0
aF0.0
aF0.0
aF0.0
aF0.0
aF744.1860465116281
aF0.0
aF0.0
aF0.0
aF9396.288466055914
aF0.0
aF0.0
aF3720.7414422946777
asS'd__Bacteria.p__Proteobacteria.c__Gammaproteobacteria.o__Enterobacterales'
p149
(lp150
F20508.613617719406
aF556563.9962838562
aF522.0569042025578
aF195450.75739006803
aF24997.238891138688
aF120007.84044690512
aF12292.849918307038
aF24621.289453268557
aF402521.4379010733
aF240438.208725735
aF19776.559572548693
aF179871.01354949418
aF6122.18314445747
aF226976.43322747815
aF430966.64580166334
aF7002.602318429152
aF18589.077473732872
aF418479.26267281116
aF913.2072599977174
aF5822.607477453808
aF188838.83032981935
aF350547.13804713805
aF67996.87370695596
aF471445.5257536202
aF87515.37271392868
aF411395.5408753096
aF0.0
aF206099.28168291453
aF764432.4288681548
aF675447.6031572868
aF28610.580516568352
aF79203.89926888712
aF416987.0397526849
aF645077.0170319603
aF99895.86948976047
aF204116.39460610406
aF8848.066065559951
aF0.0
aF60210.37359448682
aF14976.735168669977
aF739.4808844191376
aF10754.009709334501
aF13166.517724158502
aF477.750477750478
aF380444.964871194
aF289626.840123245
aF2332.4717896992997
aF533.3017302678364
aF22449.35207154591
aF502.84948038887006
aF118918.0537772091
aF965408.1024724458
aF2369.6682464454993
aF4078.947368421047
aF10835.741275839104
aF19776.176605856203
aF57670.38978801
aF14791.396149720507
aF18687.18592964827
aF9207.388096954908
aF393958.86889460176
aF823.8928939237899
aF294637.4687473061
aF8948.545861297542
aF9616.28670606999
aF5251.244907197826
aF25165.772023997506
aF501730.1038062283
aF62865.175943417016
aF7117.015598125851
aF41623.7043468823
aF306133.57114546176
aF468.0674017058464
aF571984.7840680241
aF927.5823229311598
aF20313.986679353
aF9165.575526723005
aF247735.74853489615
aF23587.775541723182
aF33196.59999154231
aF50878.368319190144
aF585.365853658537
aF95246.12746338303
aF346976.2968829552
aF816753.9267015706
aF62268.20222525857
aF28322.440087146028
aF63199.67887248561
aF318155.89770583814
aF537484.4677619769
aF98803.29094988781
aF5272.466379684323
aF341784.0744083826
aF152855.62256119153
aF196685.9021889812
aF566320.7428259319
aF347760.18861569534
aF245009.68584182634
aF23947.861907836108
aF4662.666234187479
aF26388.38286576802
aF677594.885049653
aF11850.902830604195
aF299609.3358709807
aF415.20575751983813
aF113901.34529147991
aF232708.18995182394
aF1363.9906469212794
aF1085.5995223362113
aF6469.500924214419
aF30348.51540879031
aF204223.2722976962
aF16269.206702356905
aF773987.273009468
aF13928.808313066487
aF4551.078119476854
aF396501.9089877208
aF823139.3476270171
aF188058.0635506559
aF203698.1268445459
aF0.0
aF44595.576783303906
aF503816.79389312956
aF53413.93320780893
aF2769.9198491277693
aF557609.5862351499
aF2378.713282071141
aF0.0
aF10631.6836607809
aF6986.079974975241
aF27318.663406683005
aF298956.35673624295
aF27630.835601663992
aF3967.282166821769
aF963779.8856548858
aF35354.76046088537
aF186958.73662761095
aF36884.75027210061
aF8168.097070139094
aF858943.8629876309
aF17591.0445591335
aF9951.302138471303
aF703253.1824611035
aF37334.34923399278
aF7454.295589888811
aF68041.96509633807
aF329919.58731603704
aF203568.7493301894
aF905585.4083099978
aF3662.09729301727
aF11825.229538065802
aF37048.91740176422
aF144424.82341069606
aF421499.8152936832
aF8262.142542012589
aF4752.376188094047
aF627463.8633377136
aF1631.4045373438696
aF10247.975708502
aF201627.24524275295
aF828184.3039627798
aF12958.9632829374
aF406.7402672864609
aF16620.1550387597
aF640412.2365230367
aF2536.6577986759894
aF9270.998415213957
aF1252.8384621407906
aF1803.5583719229808
aF126576.32222849604
aF86050.60208361514
asS'd__Bacteria.p__Actinobacteriota.c__Coriobacteriia.o__Coriobacteriales'
p151
(lp152
F141646.15805304906
aF929.0359465447013
aF16027.146959018544
aF6176.773371243691
aF4528.218532562678
aF10290.586563434139
aF15716.175212012711
aF255277.4488587639
aF11641.774092793508
aF1921.9680953296202
aF2498.0917354798394
aF21833.027631501118
aF3516.9988276670597
aF10822.329934815283
aF2772.0647411249224
aF3217.4118760350107
aF472539.7375206866
aF6036.866359447002
aF0.0
aF4990.806409246128
aF595.0357021421281
aF2988.2154882154905
aF5654.912417819867
aF12152.860194635705
aF52326.734637203925
aF74690.33856317082
aF8289.603772149965
aF43612.108773730084
aF7912.696581055678
aF10010.909324263623
aF11004.069429449411
aF4833.468724614131
aF24176.608140779186
aF5496.369681753411
aF1388.4068031933396
aF7452.093683463451
aF16684.92458077021
aF6887.955917082134
aF54479.50671019222
aF44930.20550601003
aF279745.6185757599
aF3195.4771707736704
aF113077.15221924303
aF4845.75484575485
aF4683.840749414519
aF2396.4395754878497
aF67263.4432326798
aF117800.42664138408
aF98704.14309180513
aF4525.64532349983
aF282050.25608194614
aF0.0
aF20401.36255924173
aF32105.26315789468
aF18615.247832851706
aF0.0
aF67654.43355368136
aF8581.267995257724
aF3611.8090452261345
aF18192.911420489218
aF10684.447300771208
aF85508.31249080478
aF128976.63591688903
aF29044.2027308493
aF44141.1014166432
aF3485.7401539157977
aF32996.52668140201
aF37444.38952051412
aF11465.975486535202
aF22952.375303955905
aF3473.16437835784
aF3913.991280221962
aF17578.531308508416
aF716.0438576862831
aF795.0705625124227
aF23596.5746907707
aF83740.03094869659
aF887.9417510211335
aF11887.490054757292
aF29136.888400219905
aF216614.5600714603
aF6390.24390243902
aF29827.66860644908
aF37817.502969961024
aF7149.304928687489
aF176732.38336911993
aF8253.728841964146
aF5129.1200214085
aF169188.92836776807
aF9572.460766717288
aF62453.25355273001
aF24693.829879534114
aF13421.765236843139
aF2554.0971975878
aF14152.616138495772
aF5209.865131717149
aF6820.47827551363
aF1094.9212498947225
aF645.5777921239505
aF85306.51962374308
aF21183.57362202681
aF1394.36811318188
aF12731.713176121993
aF1752.9800661123884
aF12317.770806421802
aF4248.288883644087
aF645.2167928423949
aF3945.8300857365584
aF1791.2392118547523
aF9568.337501359138
aF18950.232187250807
aF31453.04193738933
aF2572.481401654731
aF2979.97827099177
aF8327.806028447192
aF13520.678685047711
aF619.1311526158287
aF17051.375161830198
aF33122.162917144684
aF6083.237969041737
aF2256.647962917781
aF2024.7118679264904
aF26579.600846132576
aF11693.588346050907
aF24339.933993399296
aF153.62556329373197
aF6195.718316092272
aF0.0
aF3233.02661029595
aF8915.072206871382
aF13822.330888345601
aF2466.7931688804597
aF4160.032869395509
aF157662.73203702795
aF0.0
aF3032.1406913280775
aF40535.62331708029
aF17293.505865280007
aF52204.79431784546
aF1474.7859181731696
aF8432.07094570037
aF4234.596654668636
aF13012.72984441301
aF1278.9463658875093
aF666.3057510515141
aF2975.8902451326485
aF8799.87862236383
aF964.5268459972139
aF2762.4309392265195
aF2474.39006284951
aF40798.82819477691
aF1390.0026730820607
aF0.0
aF11267.085334318406
aF184133.47772029001
aF31453.226613306684
aF4880.795945184907
aF14325.771093550897
aF8919.53441295546
aF8625.288991641468
aF1673.2644982247095
aF48956.083513318896
aF26670.540383497995
aF12341.085271317801
aF53394.88901324378
aF1856.0910722019396
aF8795.562599049135
aF12293.477409756506
aF74384.59663660743
aF5175.983436853002
aF43634.14964145577
asS'd__Bacteria.p__Firmicutes'
p153
(lp154
F677695.7433233068
aF217608.80440220074
aF620516.8363351605
aF703465.8561694202
aF950189.5961418105
aF708090.3611505858
aF916206.3331517932
aF398881.2216732681
aF532284.6271792833
aF98673.84201422252
aF292276.7330511417
aF761315.8984675462
aF407971.8640093783
aF250668.5609226142
aF403603.68416346214
aF357842.44144783495
aF197475.27229342275
aF478018.43317972345
aF746813.2871656333
aF314201.908764557
aF627932.6759605575
aF268518.5185185185
aF552158.5214472903
aF290007.1208165202
aF613797.7545919787
aF307142.8571428572
aF684995.0566583007
aF303200.35915854253
aF208037.9809435888
aF258615.15754347687
aF578357.2792957393
aF900609.2607636068
aF430977.7654472675
aF284318.3823030468
aF630267.2683096146
aF593754.4357700496
aF786129.6031010369
aF312450.8003148778
aF239535.7272397532
aF703712.6793330748
aF309324.85395252524
aF834142.4445400352
aF249151.02770330673
aF924310.6743106743
aF218325.52693208455
aF85518.65799383771
aF251150.47595032502
aF73477.12728134639
aF384194.19602117146
aF547477.3717733828
aF324463.8284250959
aF28820.37533512063
aF774548.2819905215
aF922017.543859649
aF883196.2658368526
aF36639.58301395061
aF419876.9090494642
aF730423.9823858183
aF929072.445561139
aF312496.5333629153
aF460194.40874036
aF818184.4931587464
aF360893.1804465903
aF355858.9832600475
aF283750.82090252347
aF895835.2195563604
aF262961.7934954216
aF453905.0914483441
aF162368.7563150728
aF934819.9988138305
aF920985.5103923589
aF497423.70194213226
aF208342.00124817996
aF29044.528977399867
aF974160.2067183461
aF721979.0675547093
aF203606.7134864896
aF55141.182738412404
aF91309.0279402816
aF225398.57064321058
aF698972.7556945067
aF349951.21951219474
aF505861.5164038124
aF128868.02059172938
aF102328.94024192101
aF710482.1393714618
aF878665.996313055
aF747513.491815708
aF281001.88621309795
aF389341.4331078286
aF671017.2026925955
aF370040.3777488572
aF511910.8355245087
aF28946.434905994985
aF146845.48180147653
aF168816.43628418964
aF618474.2337487371
aF286532.4686262952
aF90872.7596913523
aF36287.706779111206
aF919065.216259824
aF315671.3372330297
aF910637.7867638229
aF550135.2298908143
aF930752.9064403027
aF854000.4720320981
aF743332.7598072953
aF823752.9228371003
aF918200.0759919664
aF663803.4141567905
aF800647.309911347
aF707914.943886592
aF657512.3409580754
aF208629.52040974674
aF405888.4221386982
aF815394.1322021916
aF566969.3530079453
aF157819.95010893932
aF752930.6130593106
aF398602.66216948756
aF985972.1883386192
aF732374.623611255
aF387105.67460682447
aF897532.4546625706
aF791548.7977369163
aF385190.49569848395
aF899485.5341041101
aF977340.9951678202
aF901890.07709525
aF718367.1341431625
aF777571.3121434393
aF653605.3130929789
aF950028.2471367675
aF418425.8216192389
aF18483.627858627853
aF720679.1995148571
aF493413.8708973149
aF761518.9261095658
aF675051.7904705533
aF133206.47002854422
aF740350.3670858474
aF862093.3022796242
aF178877.88778877864
aF899915.6439631009
aF690376.0463082498
aF873852.5168970039
aF643225.6106812321
aF241560.39009752456
aF70990.69098614994
aF809521.4529618454
aF590261.1553713691
aF880139.0002673081
aF824545.913218971
aF534493.9046915404
aF749649.0594794053
aF807716.3581790891
aF363760.09010700183
aF907060.9227631914
aF824202.935222672
aF725813.6226213765
aF167734.56311472098
aF453563.7149028069
aF826438.1173736199
aF831193.798449613
aF90468.19623204616
aF682732.166058281
aF789461.17274168
aF938141.1009317986
aF457128.9300511818
aF809100.3199698853
aF822622.1079691519
asS'd__Bacteria.p__Proteobacteria.c__Gammaproteobacteria.o__Burkholderiales'
p155
(lp156
F0.0
aF0.0
aF208.8227616810235
aF1225.5502720721602
aF220.8887089054959
aF441.02513843289125
aF0.0
aF244.98795475889082
aF0.0
aF11762.4447434173
aF7563.666643536188
aF0.0
aF0.0
aF0.0
aF0.0
aF0.0
aF962.1675711041834
aF2119.815668202761
aF0.0
aF1576.0441292356197
aF552.5331519891189
aF883.8383838383842
aF0.0
aF16045.573225729908
aF2419.9627087713698
aF0.0
aF1977.3366795954087
aF0.0
aF3593.683030562789
aF449.20746967849595
aF996.5949671954161
aF528.025995125914
aF0.0
aF0.0
aF0.0
aF922.6401703335703
aF0.0
aF0.0
aF0.0
aF0.0
aF0.0
aF0.0
aF0.0
aF0.0
aF0.0
aF0.0
aF0.0
aF0.0
aF182.51505749224305
aF963.794837412001
aF0.0
aF0.0
aF703.495260663507
aF0.0
aF0.0
aF0.0
aF0.0
aF0.0
aF994.5561139028474
aF998.3914803927017
aF0.0
aF353.0969545387669
aF0.0
aF0.0
aF0.0
aF0.0
aF0.0
aF0.0
aF0.0
aF0.0
aF0.0
aF0.0
aF260.0374453921362
aF0.0
aF662.5588020936856
aF0.0
aF0.0
aF0.0
aF187.20456779145385
aF338.30929927686407
aF0.0
aF2097.56097560976
aF0.0
aF0.0
aF216.6456038996209
aF0.0
aF125.69130216189012
aF0.0
aF0.0
aF782.3645818951628
aF0.0
aF0.0
aF235.4695655586516
aF0.0
aF483.5745833199011
aF0.0
aF0.0
aF0.0
aF0.0
aF243.26954265325995
aF0.0
aF0.0
aF1361.2523521639894
aF500.8514474606825
aF0.0
aF0.0
aF16861.665519614595
aF0.0
aF0.0
aF0.0
aF0.0
aF0.0
aF0.0
aF1179.57473226758
aF0.0
aF0.0
aF0.0
aF0.0
aF199.5311019105099
aF0.0
aF0.0
aF726.8196448966881
aF5794.1690425825345
aF743.2365474184925
aF176.80339462517696
aF563.2937320770179
aF940.4215301211484
aF0.0
aF7460.830639144489
aF4014.38923935144
aF0.0
aF237.19165085388994
aF0.0
aF97.95758436596948
aF0.0
aF0.0
aF0.0
aF604.6680372475512
aF1183.7821840781294
aF0.0
aF0.0
aF917.495941844872
aF54691.18340405473
aF0.0
aF42601.923957856205
aF0.0
aF0.0
aF0.0
aF0.0
aF1336.1706339387301
aF45371.726626415606
aF908.8479016305806
aF7694.248234106963
aF0.0
aF0.0
aF0.0
aF0.0
aF0.0
aF442.81376518218605
aF0.0
aF0.0
aF0.0
aF232.42300987797793
aF868.2170542635661
aF139.89927252378294
aF0.0
aF0.0
aF0.0
aF1559.8342676090706
aF0.0
aF0.0
asS'd__Bacteria.p__Verrucomicrobiota'
p157
(lp158
F75015.95114392492
aF165154.00557421608
aF469.8512137823019
aF0.0
aF110.44435445274794
aF147.0083794776304
aF0.0
aF1265.7710995876007
aF0.0
aF1614.45320007688
aF902.0886822566088
aF236.6723862493342
aF43962.4853458382
aF31631.28865117836
aF402.39649467942434
aF253181.9257156381
aF153.94681137666956
aF0.0
aF266.3521174993345
aF52534.804307853985
aF425.025501530091
aF0.0
aF0.0
aF1044.3864229765004
aF137461.8161621768
aF1692.8158546655684
aF0.0
aF47877.116469984554
aF197.81741452639196
aF96.25874350253476
aF622.8718544971351
aF6417.5467099918815
aF0.0
aF1221.4154848340893
aF0.0
aF0.0
aF674.1383668998066
aF218577.80110207314
aF0.0
aF0.0
aF98572.80189307105
aF14625.453204694903
aF158117.36669645502
aF1228.50122850123
aF644.0281030444961
aF560972.269770627
aF50053.583811385
aF0.0
aF328.52710348603813
aF5028.4948038887005
aF520.1664532650452
aF0.0
aF0.0
aF482.45614035087664
aF30784.61880417871
aF0.0
aF191611.57966719856
aF508.10139445604926
aF366.41541038525946
aF0.0
aF281.1696658097688
aF2236.2807120788593
aF99534.44262436424
aF771.4263673532361
aF396660.099446477
aF226.34676324128583
aF24218.503315440506
aF164.7717910693691
aF173439.353336555
aF0.0
aF0.0
aF59304.39952437575
aF392448.5125858123
aF392481.5394942941
aF198.76764062810568
aF333.016175071361
aF149982.1449827404
aF695435.9793997514
aF0.0
aF296.0206368672561
aF0.0
aF195.121951219512
aF899.6092322397453
aF399502.17797137523
aF35854.84744538728
aF26976.381026742085
aF0.0
aF446.01043664421695
aF16274.071149712707
aF322.1501219568319
aF261.7801047120421
aF7975.439650281984
aF117.7347827793258
aF814331.323164243
aF623456.5911215704
aF11848.241670517997
aF20545.638262041088
aF0.0
aF742721.8789387929
aF0.0
aF8431.790974860776
aF0.0
aF7366.777435240417
aF0.0
aF2675.7704373500605
aF94.40641963653523
aF1118.3757742601497
aF0.0
aF0.0
aF98945.30825269101
aF375.2521225198181
aF0.0
aF0.0
aF4780.38180971597
aF0.0
aF0.0
aF154.78278815395694
aF252.612965360447
aF0.0
aF180.69023670420992
aF0.0
aF2595.7844460596007
aF0.0
aF0.0
aF14026.402640263997
aF358.45964768537493
aF5421.253526580742
aF4636.280527621781
aF0.0
aF238360.87795214003
aF0.0
aF0.0
aF102.71686097272897
aF244.89396091492395
aF0.0
aF0.0
aF0.0
aF241.8672148990201
aF0.0
aF0.0
aF436.141600639674
aF0.0
aF377.18057520037723
aF54.42324961223428
aF0.0
aF34701.90658730958
aF5727.507206797151
aF0.0
aF0.0
aF0.0
aF0.0
aF0.0
aF0.0
aF0.0
aF0.0
aF0.0
aF0.0
aF8819.780780015288
aF0.0
aF0.0
aF81.62265844998568
aF0.0
aF0.0
aF0.0
aF0.0
aF0.0
aF237.71790808240917
aF469.8144233027952
aF0.0
aF0.0
aF0.0
asS'd__Bacteria.p__Firmicutes.c__Bacilli.o__Lactobacillales'
p159
(lp160
F10482.180293501004
aF929.0359465447013
aF32367.528060558558
aF1127.5062503063903
aF1214.8878989802295
aF98.00558631842014
aF82315.41274410636
aF1143.277122208156
aF15389.857459253812
aF768.787238131847
aF1249.0458677399197
aF23548.902431808823
aF586.166471277843
aF2131.037940832361
aF11222.391129392809
aF5961.674946770761
aF35638.686833699
aF1428.5714285714305
aF746584.9853506339
aF2976.972244111719
aF10285.617137028245
aF3114.478114478111
aF9654.728518229045
aF8924.756705435564
aF26381.56067758956
aF79562.34516928151
aF912.6169290440333
aF7054.899948691631
aF3231.017770597739
aF7540.268241031895
aF19641.225811809672
aF5320.877335499591
aF64721.96900638101
aF16319.468005699928
aF4790.003471017009
aF21007.806955287408
aF24774.584983567893
aF90527.42062450806
aF47442.87268770402
aF15752.229546335775
aF0.0
aF0.0
aF11319.630622579703
aF477.750477750478
aF2283.37236533958
aF15816.501198219798
aF12481.876063796299
aF64529.509362408244
aF37415.586785909814
aF712.370097217566
aF52096.67093469912
aF4095.9189752755387
aF35174.763033175295
aF350.87719298245577
aF5667.926205823522
aF6822.01441054729
aF3920.6747207658973
aF677.4685259413993
aF16174.623115577884
aF285650.8957790226
aF32937.01799485858
aF323.6722083272029
aF18018.794723683106
aF8022.834220473661
aF1641.8050473777998
aF28927.11634223628
aF2526.0498894853204
aF0.0
aF0.0
aF58062.98558804342
aF868.2910945894612
aF12286.959968291754
aF6864.988558352406
aF1297.82949205639
aF926389.7170873913
aF0.0
aF4166.170693965006
aF5460.841768779974
aF2340.057097393178
aF88087.28379921343
aF7927.64627065655
aF1024.39024390244
aF27775.43504540218
aF52950.16122645243
aF3321.8992597941874
aF273.27737653718486
aF20403.88805094692
aF356.808349315374
aF965.0392595516954
aF13346.219338211597
aF3440.538519072551
aF1067.8412920879603
aF7142.576821945767
aF3724.725079815539
aF15377.671749572793
aF69534.89349187008
aF365611.31694173126
aF241177.46146719484
aF40271.75750868457
aF33084.65780084329
aF86660.07390829135
aF476.125697184057
aF2882.6520398766884
aF5659.621356305715
aF415.20575751983813
aF0.0
aF0.0
aF8037.802026500387
aF147967.21489442518
aF0.0
aF6942.164266616632
aF147.66686355581814
aF347.63262184523415
aF0.0
aF64079.88797995424
aF42064.33368681513
aF3921.1639665669186
aF0.0
aF648.4760812091578
aF1746.6722881406993
aF8965.601366186875
aF1245.9765341086102
aF4276.648579049016
aF247.74551580616415
aF1826.9684111268296
aF31134.780827529692
aF13387.177075842206
aF130.59945148230403
aF162148.719224074
aF156.40477555914703
aF488.99755501222506
aF11954.459203036098
aF256.79215243182193
aF489.7879218298479
aF2501.299376299379
aF667.0709520921765
aF873.2988865439198
aF0.0
aF295.9455460195318
aF51855.37583254039
aF9158.97361343316
aF3175.947491001477
aF5217.664623605224
aF244.90462325505487
aF416.4410944071961
aF403.51054171290184
aF5879.229252010321
aF4179.616332654593
aF0.0
aF0.0
aF1143.2246079096901
aF588.0780539962583
aF693.7436932391522
aF35833.025489471715
aF56551.5581759114
aF42271.13556778388
aF3942.1813403416577
aF1274.5347947998998
aF189.777327935223
aF5557.531566779298
aF2775.1703872995095
aF37769.286149415704
aF11272.515979081896
aF1736.4341085271303
aF15855.250886028693
aF672152.4469467299
aF0.0
aF313.20961553519714
aF35242.50548379231
aF5223.037831733482
aF4126.640508726827
assS'subclass_sl'
p161
(dp162
g12
(I0
I100
tp163
sg10
(I100
I171
tp164
ssS'norm'
p165
F1000000.0
sS'cls'
p166
(dp167
S'class'
p168
(S'AD'
p169
S'AD'
p170
S'AD'
p171
S'AD'
p172
S'AD'
p173
S'AD'
p174
S'AD'
p175
S'AD'
p176
S'AD'
p177
S'AD'
p178
S'AD'
p179
S'AD'
p180
S'AD'
p181
S'AD'
p182
S'AD'
p183
S'AD'
p184
S'AD'
p185
S'AD'
p186
S'AD'
p187
S'AD'
p188
S'AD'
p189
S'AD'
p190
S'AD'
p191
S'AD'
p192
S'AD'
p193
S'AD'
p194
S'AD'
p195
S'AD'
p196
S'AD'
p197
S'AD'
p198
S'AD'
p199
S'AD'
p200
S'AD'
p201
S'AD'
p202
S'AD'
p203
S'AD'
p204
S'AD'
p205
S'AD'
p206
S'AD'
p207
S'AD'
p208
S'AD'
p209
S'AD'
p210
S'AD'
p211
S'AD'
p212
S'AD'
p213
S'AD'
p214
S'AD'
p215
S'AD'
p216
S'AD'
p217
S'AD'
p218
S'AD'
p219
S'AD'
p220
S'AD'
p221
S'AD'
p222
S'AD'
p223
S'AD'
p224
S'AD'
p225
S'AD'
p226
S'AD'
p227
S'AD'
p228
S'AD'
p229
S'AD'
p230
S'AD'
p231
S'AD'
p232
S'AD'
p233
S'AD'
p234
S'AD'
p235
S'AD'
p236
S'AD'
p237
S'AD'
p238
S'AD'
p239
S'AD'
p240
S'AD'
p241
S'AD'
p242
S'AD'
p243
S'AD'
p244
S'AD'
p245
S'AD'
p246
S'AD'
p247
S'AD'
p248
S'AD'
p249
S'AD'
p250
S'AD'
p251
S'AD'
p252
S'AD'
p253
S'AD'
p254
S'AD'
p255
S'AD'
p256
S'AD'
p257
S'AD'
p258
S'AD'
p259
S'AD'
p260
S'AD'
p261
S'AD'
p262
S'AD'
p263
S'AD'
p264
S'AD'
p265
S'AD'
p266
S'AD'
p267
g5
g3
g3
g3
g3
g3
g3
g3
g3
g3
g3
g3
g3
g3
g3
g3
g3
g3
g3
g3
g3
g3
g3
g3
g3
g3
g3
g3
g3
g3
g3
g3
g3
g3
g3
g3
g3
g3
g3
g3
g3
g3
g3
g3
g3
g3
g3
g3
g3
g3
g3
g3
g3
g3
g3
g3
g3
g3
g3
g3
g3
g3
g3
g3
g3
g3
g3
g3
g3
g3
g3
g3
tp268
sS'subclass'
p269
(lp270
S'AD_subcl'
p271
aS'AD_subcl'
p272
aS'AD_subcl'
p273
aS'AD_subcl'
p274
aS'AD_subcl'
p275
aS'AD_subcl'
p276
aS'AD_subcl'
p277
aS'AD_subcl'
p278
aS'AD_subcl'
p279
aS'AD_subcl'
p280
aS'AD_subcl'
p281
aS'AD_subcl'
p282
aS'AD_subcl'
p283
aS'AD_subcl'
p284
aS'AD_subcl'
p285
aS'AD_subcl'
p286
aS'AD_subcl'
p287
aS'AD_subcl'
p288
aS'AD_subcl'
p289
aS'AD_subcl'
p290
aS'AD_subcl'
p291
aS'AD_subcl'
p292
aS'AD_subcl'
p293
aS'AD_subcl'
p294
aS'AD_subcl'
p295
aS'AD_subcl'
p296
aS'AD_subcl'
p297
aS'AD_subcl'
p298
aS'AD_subcl'
p299
aS'AD_subcl'
p300
aS'AD_subcl'
p301
aS'AD_subcl'
p302
aS'AD_subcl'
p303
aS'AD_subcl'
p304
aS'AD_subcl'
p305
aS'AD_subcl'
p306
aS'AD_subcl'
p307
aS'AD_subcl'
p308
aS'AD_subcl'
p309
aS'AD_subcl'
p310
aS'AD_subcl'
p311
aS'AD_subcl'
p312
aS'AD_subcl'
p313
aS'AD_subcl'
p314
aS'AD_subcl'
p315
aS'AD_subcl'
p316
aS'AD_subcl'
p317
aS'AD_subcl'
p318
aS'AD_subcl'
p319
aS'AD_subcl'
p320
aS'AD_subcl'
p321
aS'AD_subcl'
p322
aS'AD_subcl'
p323
aS'AD_subcl'
p324
aS'AD_subcl'
p325
aS'AD_subcl'
p326
aS'AD_subcl'
p327
aS'AD_subcl'
p328
aS'AD_subcl'
p329
aS'AD_subcl'
p330
aS'AD_subcl'
p331
aS'AD_subcl'
p332
aS'AD_subcl'
p333
aS'AD_subcl'
p334
aS'AD_subcl'
p335
aS'AD_subcl'
p336
aS'AD_subcl'
p337
aS'AD_subcl'
p338
aS'AD_subcl'
p339
aS'AD_subcl'
p340
aS'AD_subcl'
p341
aS'AD_subcl'
p342
aS'AD_subcl'
p343
aS'AD_subcl'
p344
aS'AD_subcl'
p345
aS'AD_subcl'
p346
aS'AD_subcl'
p347
aS'AD_subcl'
p348
aS'AD_subcl'
p349
aS'AD_subcl'
p350
aS'AD_subcl'
p351
aS'AD_subcl'
p352
aS'AD_subcl'
p353
aS'AD_subcl'
p354
aS'AD_subcl'
p355
aS'AD_subcl'
p356
aS'AD_subcl'
p357
aS'AD_subcl'
p358
aS'AD_subcl'
p359
aS'AD_subcl'
p360
aS'AD_subcl'
p361
aS'AD_subcl'
p362
aS'AD_subcl'
p363
aS'AD_subcl'
p364
aS'AD_subcl'
p365
aS'AD_subcl'
p366
aS'AD_subcl'
p367
aS'AD_subcl'
p368
aS'AD_subcl'
p369
ag12
aS'C_subcl'
p370
aS'C_subcl'
p371
aS'C_subcl'
p372
aS'C_subcl'
p373
aS'C_subcl'
p374
aS'C_subcl'
p375
aS'C_subcl'
p376
aS'C_subcl'
p377
aS'C_subcl'
p378
aS'C_subcl'
p379
aS'C_subcl'
p380
aS'C_subcl'
p381
aS'C_subcl'
p382
aS'C_subcl'
p383
aS'C_subcl'
p384
aS'C_subcl'
p385
aS'C_subcl'
p386
aS'C_subcl'
p387
aS'C_subcl'
p388
aS'C_subcl'
p389
aS'C_subcl'
p390
aS'C_subcl'
p391
aS'C_subcl'
p392
aS'C_subcl'
p393
aS'C_subcl'
p394
aS'C_subcl'
p395
aS'C_subcl'
p396
aS'C_subcl'
p397
aS'C_subcl'
p398
aS'C_subcl'
p399
aS'C_subcl'
p400
aS'C_subcl'
p401
aS'C_subcl'
p402
aS'C_subcl'
p403
aS'C_subcl'
p404
aS'C_subcl'
p405
aS'C_subcl'
p406
aS'C_subcl'
p407
aS'C_subcl'
p408
aS'C_subcl'
p409
aS'C_subcl'
p410
aS'C_subcl'
p411
aS'C_subcl'
p412
aS'C_subcl'
p413
aS'C_subcl'
p414
aS'C_subcl'
p415
aS'C_subcl'
p416
aS'C_subcl'
p417
aS'C_subcl'
p418
aS'C_subcl'
p419
aS'C_subcl'
p420
aS'C_subcl'
p421
aS'C_subcl'
p422
aS'C_subcl'
p423
aS'C_subcl'
p424
aS'C_subcl'
p425
aS'C_subcl'
p426
aS'C_subcl'
p427
aS'C_subcl'
p428
aS'C_subcl'
p429
aS'C_subcl'
p430
aS'C_subcl'
p431
aS'C_subcl'
p432
aS'C_subcl'
p433
aS'C_subcl'
p434
aS'C_subcl'
p435
aS'C_subcl'
p436
aS'C_subcl'
p437
aS'C_subcl'
p438
aS'C_subcl'
p439
ag10
asS'subject'
p440
(S'AD01'
p441
S'AD04'
p442
S'AD05'
p443
S'AD07'
p444
S'AD08'
p445
S'AD09'
p446
S'AD10'
p447
S'AD100'
p448
S'AD101'
p449
S'AD102'
p450
S'AD103'
p451
S'AD104'
p452
S'AD105'
p453
S'AD106'
p454
S'AD107'
p455
S'AD108'
p456
S'AD109'
p457
S'AD11'
p458
S'AD110'
p459
S'AD111'
p460
S'AD112'
p461
S'AD113'
p462
S'AD114'
p463
S'AD116'
p464
S'AD118'
p465
S'AD119'
p466
S'AD12'
p467
S'AD120'
p468
S'AD121'
p469
S'AD122'
p470
S'AD123'
p471
S'AD125'
p472
S'AD126'
p473
S'AD127'
p474
S'AD13'
p475
S'AD14'
p476
S'AD16'
p477
S'AD17'
p478
S'AD18'
p479
S'AD19'
p480
S'AD20'
p481
S'AD21'
p482
S'AD22'
p483
S'AD23'
p484
S'AD24'
p485
S'AD25'
p486
S'AD26'
p487
S'AD27'
p488
S'AD29'
p489
S'AD30'
p490
S'AD31'
p491
S'AD32'
p492
S'AD33'
p493
S'AD34'
p494
S'AD35'
p495
S'AD36'
p496
S'AD37'
p497
S'AD40'
p498
S'AD41'
p499
S'AD47'
p500
S'AD50'
p501
S'AD53'
p502
S'AD54'
p503
S'AD55'
p504
S'AD58'
p505
S'AD59'
p506
S'AD60'
p507
S'AD61'
p508
S'AD62'
p509
S'AD63'
p510
S'AD64'
p511
S'AD65'
p512
S'AD66'
p513
S'AD67'
p514
S'AD68'
p515
S'AD69'
p516
S'AD70'
p517
S'AD71'
p518
S'AD74'
p519
S'AD75'
p520
S'AD76'
p521
S'AD77'
p522
S'AD78'
p523
S'AD79'
p524
S'AD80'
p525
S'AD83'
p526
S'AD84'
p527
S'AD85'
p528
S'AD86'
p529
S'AD88'
p530
S'AD89'
p531
S'AD90'
p532
S'AD91'
p533
S'AD92'
p534
S'AD93'
p535
S'AD94'
p536
S'AD96'
p537
S'AD97'
p538
S'AD98'
p539
S'AD99'
p540
S'C01'
p541
S'C02'
p542
S'C03'
p543
S'C05'
p544
S'C07'
p545
S'C08'
p546
S'C09'
p547
S'C10'
p548
S'C11'
p549
S'C12'
p550
S'C13'
p551
S'C15'
p552
S'C16'
p553
S'C17'
p554
S'C18'
p555
S'C19'
p556
S'C20'
p557
S'C21'
p558
S'C22'
p559
S'C23'
p560
S'C24'
p561
S'C25'
p562
S'C26'
p563
S'C27'
p564
S'C28'
p565
S'C29'
p566
S'C30'
p567
S'C31'
p568
S'C32'
p569
S'C33'
p570
S'C34'
p571
S'C35'
p572
S'C36'
p573
S'C39'
p574
S'C40'
p575
S'C42'
p576
S'C43'
p577
S'C44'
p578
S'C46'
p579
S'C49'
p580
S'C50'
p581
S'C51'
p582
S'C52'
p583
S'C54'
p584
S'C55'
p585
S'C57'
p586
S'C58'
p587
S'C59'
p588
S'C60'
p589
S'C61'
p590
S'C62'
p591
S'C63'
p592
S'C64'
p593
S'C71'
p594
S'C72'
p595
S'C73'
p596
S'C74'
p597
S'C75'
p598
S'C76'
p599
S'C77'
p600
S'C78'
p601
S'C79'
p602
S'C80'
p603
S'C81'
p604
S'C82'
p605
S'C83'
p606
S'C84'
p607
S'C85'
p608
S'C86'
p609
S'C87'
p610
S'C88'
p611
tp612
ss.